SH SERIES C/C++ Compiler (Ver. 6.0C)                                                                 03-Dec-2017 19:45:28  PAGE    1

************ OBJECT LISTING ************

FILE NAME: E:\CASIO\fx-9860G SDK\Project\fxQr\src\QR.c

SCT OFFSET   CODE       C LABEL     INSTRUCTION OPERAND    COMMENT

            QR.c     1    #include <stdio.h>      //for printf
            QR.c     2    #include <string.h>     //for strlen
            QR.c     3    #include "QR.h"
            QR.c     4    
            QR.c     5    //printf("INFO: len of message=%d\n", message_length);
            QR.c     6    
            QR.c     7    int is_mask_applicable(int16_t row, int16_t column, unsigned char mask_number) {
P   00000000              _is_mask_applicable:             ; function: is_mask_applicable
                                                           ; frame size=16
                                                           ; used runtime library name:
                                                           ; __divls, __modls
    00000000 2FE6                   MOV.L       R14,@-R15
    00000002 E703                   MOV         #3,R7
    00000004 2FD6                   MOV.L       R13,@-R15
    00000006 606C                   EXTU.B      R6,R0
    00000008 4F22                   STS.L       PR,@-R15
    0000000A 6D43                   MOV         R4,R13
    0000000C 4F12                   STS.L       MACL,@-R15
    0000000E 8800                   CMP/EQ      #0,R0
    00000010 0457                   MUL.L       R5,R4
    00000012 3D5C                   ADD         R5,R13
    00000014 8D10                   BT/S        L449
    00000016 0E1A                   STS         MACL,R14
    00000018 8801                   CMP/EQ      #1,R0
    0000001A 8916                   BT          L450
    0000001C 8802                   CMP/EQ      #2,R0
    0000001E 891D                   BT          L451
    00000020 8803                   CMP/EQ      #3,R0
    00000022 8921                   BT          L452
    00000024 8804                   CMP/EQ      #4,R0
    00000026 8925                   BT          L453
    00000028 8805                   CMP/EQ      #5,R0
    0000002A 8934                   BT          L454
    0000002C 8806                   CMP/EQ      #6,R0
    0000002E 8943                   BT          L455
    00000030 8807                   CMP/EQ      #7,R0
    00000032 895B                   BT          L456
    00000034 A076                   BRA         L462
    00000036 0009                   NOP
    00000038              L449:                            ; case label 
            QR.c     8            switch (mask_number) {
            QR.c     9                    case 0: return ((row + column) % 2 == 0);
    00000038 60D3                   MOV         R13,R0
    0000003A 4011                   CMP/PZ      R0
    0000003C 894E                   BT          L641
    0000003E 6007                   NOT         R0,R0
    00000040 7001                   ADD         #1,R0
    00000042 C901                   AND         #1,R0
    00000044 6007                   NOT         R0,R0
    00000046 A06A                   BRA         L638
    00000048 7001                   ADD         #1,R0
    0000004A              L450:                            ; case label 
            QR.c    10                    case 1: return ((row % 2) == 0);
    0000004A 6043                   MOV         R4,R0




SH SERIES C/C++ Compiler (Ver. 6.0C)                                                                 03-Dec-2017 19:45:28  PAGE    2


SCT OFFSET   CODE       C LABEL     INSTRUCTION OPERAND    COMMENT

    0000004C 4011                   CMP/PZ      R0
    0000004E 8945                   BT          L641
    00000050 6007                   NOT         R0,R0
    00000052 7001                   ADD         #1,R0
    00000054 C901                   AND         #1,R0
    00000056 6007                   NOT         R0,R0
    00000058 A061                   BRA         L638
    0000005A 7001                   ADD         #1,R0
    0000005C              L451:                            ; case label 
            QR.c    11                    case 2: return ((column % 3) == 0);
    0000005C D334                   MOV.L       L654,R3    ; __modls
    0000005E 6153                   MOV         R5,R1
    00000060 430B                   JSR         @R3
    00000062 6073                   MOV         R7,R0
    00000064 A05B                   BRA         L638
    00000066 0009                   NOP
    00000068              L452:                            ; case label 
            QR.c    12                    case 3: return ((row + column) % 3 == 0);
    00000068 D231                   MOV.L       L654,R2    ; __modls
    0000006A 61D3                   MOV         R13,R1
    0000006C 420B                   JSR         @R2
    0000006E 6073                   MOV         R7,R0
    00000070 A055                   BRA         L638
    00000072 0009                   NOP
    00000074              L453:                            ; case label 
            QR.c    13                    case 4: return ((((row / 2) + (column / 3)) % 2) == 0); //double check floor
    00000074 D22F                   MOV.L       L654+4,R2  ; __divls
    00000076 E300                   MOV         #0,R3
    00000078 3347                   CMP/GT      R4,R3
    0000007A 343E                   ADDC        R3,R4
    0000007C 4421                   SHAR        R4
    0000007E 6153                   MOV         R5,R1
    00000080 420B                   JSR         @R2
    00000082 6073                   MOV         R7,R0
    00000084 304C                   ADD         R4,R0
    00000086 4011                   CMP/PZ      R0
    00000088 8928                   BT          L641
    0000008A 6007                   NOT         R0,R0
    0000008C 7001                   ADD         #1,R0
    0000008E C901                   AND         #1,R0
    00000090 6007                   NOT         R0,R0
    00000092 A044                   BRA         L638
    00000094 7001                   ADD         #1,R0
    00000096              L454:                            ; case label 
            QR.c    14                    case 5: return ((((row * column) % 2) + ((row * column) % 3)) == 0);
    00000096 60E3                   MOV         R14,R0
    00000098 4011                   CMP/PZ      R0
    0000009A 8B01                   BF          L476
    0000009C A005                   BRA         L477
    0000009E C901                   AND         #1,R0
    000000A0              L476:                             
    000000A0 6007                   NOT         R0,R0
    000000A2 7001                   ADD         #1,R0
    000000A4 C901                   AND         #1,R0
    000000A6 6007                   NOT         R0,R0
    000000A8 7001                   ADD         #1,R0
    000000AA              L477:                             




SH SERIES C/C++ Compiler (Ver. 6.0C)                                                                 03-Dec-2017 19:45:28  PAGE    3


SCT OFFSET   CODE       C LABEL     INSTRUCTION OPERAND    COMMENT

    000000AA 6203                   MOV         R0,R2
    000000AC D320                   MOV.L       L654,R3    ; __modls
    000000AE 61E3                   MOV         R14,R1
    000000B0 430B                   JSR         @R3
    000000B2 6073                   MOV         R7,R0
    000000B4 A033                   BRA         L638
    000000B6 302C                   ADD         R2,R0
    000000B8              L455:                            ; case label 
            QR.c    15                    case 6: return ((((row * column) % 2) + ((row * column) % 3)) % 2 == 0);
    000000B8 60E3                   MOV         R14,R0
    000000BA 4011                   CMP/PZ      R0
    000000BC 8B01                   BF          L479
    000000BE A005                   BRA         L480
    000000C0 C901                   AND         #1,R0
    000000C2              L479:                             
    000000C2 6007                   NOT         R0,R0
    000000C4 7001                   ADD         #1,R0
    000000C6 C901                   AND         #1,R0
    000000C8 6007                   NOT         R0,R0
    000000CA 7001                   ADD         #1,R0
    000000CC              L480:                             
    000000CC D218                   MOV.L       L654,R2    ; __modls
    000000CE 6303                   MOV         R0,R3
    000000D0 61E3                   MOV         R14,R1
    000000D2 420B                   JSR         @R2
    000000D4 6073                   MOV         R7,R0
    000000D6 303C                   ADD         R3,R0
    000000D8 4011                   CMP/PZ      R0
    000000DA 8B01                   BF          L481
    000000DC              L641:                             
    000000DC A01F                   BRA         L638
    000000DE C901                   AND         #1,R0
    000000E0              L481:                             
    000000E0 6007                   NOT         R0,R0
    000000E2 7001                   ADD         #1,R0
    000000E4 C901                   AND         #1,R0
    000000E6 6007                   NOT         R0,R0
    000000E8 A019                   BRA         L638
    000000EA 7001                   ADD         #1,R0
    000000EC              L456:                            ; case label 
            QR.c    16                    case 7: return ((((row + column) % 2) + ((row * column) % 3)) % 2 == 0);
    000000EC 60D3                   MOV         R13,R0
    000000EE 4011                   CMP/PZ      R0
    000000F0 8B01                   BF          L484
    000000F2 A005                   BRA         L485
    000000F4 C901                   AND         #1,R0
    000000F6              L484:                             
    000000F6 6007                   NOT         R0,R0
    000000F8 7001                   ADD         #1,R0
    000000FA C901                   AND         #1,R0
    000000FC 6007                   NOT         R0,R0
    000000FE 7001                   ADD         #1,R0
    00000100              L485:                             
    00000100 D20B                   MOV.L       L654,R2    ; __modls
    00000102 6303                   MOV         R0,R3
    00000104 61E3                   MOV         R14,R1
    00000106 420B                   JSR         @R2




SH SERIES C/C++ Compiler (Ver. 6.0C)                                                                 03-Dec-2017 19:45:28  PAGE    4


SCT OFFSET   CODE       C LABEL     INSTRUCTION OPERAND    COMMENT

    00000108 6073                   MOV         R7,R0
    0000010A 303C                   ADD         R3,R0
    0000010C 4011                   CMP/PZ      R0
    0000010E 8B01                   BF          L486
    00000110 A005                   BRA         L638
    00000112 C901                   AND         #1,R0
    00000114              L486:                             
    00000114 6007                   NOT         R0,R0
    00000116 7001                   ADD         #1,R0
    00000118 C901                   AND         #1,R0
    0000011A 6007                   NOT         R0,R0
    0000011C 7001                   ADD         #1,R0
    0000011E              L638:                             
    0000011E 2008                   TST         R0,R0
    00000120 A001                   BRA         L466
    00000122 0029                   MOVT        R0
    00000124              L462:                             
            QR.c    17            }
            QR.c    18            return 0;
    00000124 E000                   MOV         #0,R0
            QR.c    19    }
    00000126              L466:                             
    00000126 4F16                   LDS.L       @R15+,MACL
    00000128 4F26                   LDS.L       @R15+,PR
    0000012A 6DF6                   MOV.L       @R15+,R13
    0000012C 000B                   RTS
    0000012E 6EF6                   MOV.L       @R15+,R14
    00000130              L654:                             
    00000130 <00000000>             .DATA.L     __modls
    00000134 <00000000>             .DATA.L     __divls
            QR.c    20    
            QR.c    21    void reedSolomon(int16_t data_codewords, int16_t data_offset, unsigned char message[], int16_t error_codew
                         +ords, unsigned char errorcode[], unsigned char generator[]) {
    00000138              _reedSolomon:                    ; function: reedSolomon
                                                           ; frame size=36
                                                           ; used runtime library name:
                                                           ; __modls
    00000138 2FE6                   MOV.L       R14,@-R15
    0000013A 356C                   ADD         R6,R5
    0000013C 2FD6                   MOV.L       R13,@-R15
            QR.c    22            uint16_t i,j;
            QR.c    23            for (i=0; i < data_codewords; i++)
    0000013E ED00                   MOV         #0,R13
    00000140 2FC6                   MOV.L       R12,@-R15
    00000142 63D3                   MOV         R13,R3
    00000144 2FB6                   MOV.L       R11,@-R15
    00000146 6CD3                   MOV         R13,R12
    00000148 2FA6                   MOV.L       R10,@-R15
    0000014A 3342                   CMP/HS      R4,R3
    0000014C 2F96                   MOV.L       R9,@-R15
    0000014E 2F86                   MOV.L       R8,@-R15
    00000150 4F22                   STS.L       PR,@-R15
    00000152 7FFC                   ADD         #-4,R15
    00000154 5EF9                   MOV.L       @(36,R15),R14
    00000156 8D06                   BT/S        L488
    00000158 66E3                   MOV         R14,R6
    0000015A              L489:                             




SH SERIES C/C++ Compiler (Ver. 6.0C)                                                                 03-Dec-2017 19:45:28  PAGE    5


SCT OFFSET   CODE       C LABEL     INSTRUCTION OPERAND    COMMENT

    0000015A 7C01                   ADD         #1,R12
            QR.c    24                    errorcode[i] = message[i + data_offset];
    0000015C 6154                   MOV.B       @R5+,R1
    0000015E 3C42                   CMP/HS      R4,R12
    00000160 2610                   MOV.B       R1,@R6
    00000162 8FFA                   BF/S        L489
    00000164 7601                   ADD         #1,R6
    00000166              L488:                             
            QR.c    25            for (i=data_codewords; i < error_codewords; i++) // if error codewords > data codewords, need to i
                         +nitialize enough zeros for the math
    00000166 6643                   MOV         R4,R6
    00000168 65E3                   MOV         R14,R5
    0000016A 3672                   CMP/HS      R7,R6
    0000016C 8D05                   BT/S        L490
    0000016E 356C                   ADD         R6,R5
    00000170              L491:                             
            QR.c    26                    errorcode[i] = 0;
    00000170 25D0                   MOV.B       R13,@R5
    00000172 7601                   ADD         #1,R6
    00000174 3672                   CMP/HS      R7,R6
    00000176 8FFB                   BF/S        L491
    00000178 7501                   ADD         #1,R5
    0000017A              L490:                             
            QR.c    27            //printArrayBYTE("init: ", error_codewords, errorcode);
            QR.c    28            for (j=1; j <= data_codewords; j++) {
    0000017A EC01                   MOV         #1,R12
    0000017C D826                   MOV.L       L655+2,R8  ; _a
    0000017E 6273                   MOV         R7,R2
    00000180 9A49                   MOV.W       L655,R10   ; H'00FF
    00000182 69C3                   MOV         R12,R9
    00000184 7201                   ADD         #1,R2
    00000186 A03A                   BRA         L492
    00000188 2F22                   MOV.L       R2,@R15
    0000018A              L493:                             
            QR.c    29                    int16_t lead_term = a_inv[errorcode[0]];
    0000018A 65E0                   MOV.B       @R14,R5
    0000018C D023                   MOV.L       L655+6,R0  ; _a_inv
    0000018E 6B5C                   EXTU.B      R5,R11
    00000190 0BBC                   MOV.B       @(R0,R11),R11
            QR.c    30                    if (errorcode[0] != 0) {
    00000192 655C                   EXTU.B      R5,R5
    00000194 2558                   TST         R5,R5
    00000196 8D1B                   BT/S        L494
    00000198 6BBC                   EXTU.B      R11,R11
            QR.c    31                            for (i = 1; i <= error_codewords; i++) {
    0000019A 65C3                   MOV         R12,R5
    0000019C 3576                   CMP/HI      R7,R5
    0000019E 8922                   BT          L498
    000001A0              L496:                             
            QR.c    32                                    unsigned char temp_value = 0;
            QR.c    33                                    if (i < error_codewords) temp_value = errorcode[i];
    000001A0 3572                   CMP/HS      R7,R5
    000001A2 8D02                   BT/S        L497
    000001A4 66D3                   MOV         R13,R6
    000001A6 60E3                   MOV         R14,R0
    000001A8 065C                   MOV.B       @(R0,R5),R6
    000001AA              L497:                             




SH SERIES C/C++ Compiler (Ver. 6.0C)                                                                 03-Dec-2017 19:45:28  PAGE    6


SCT OFFSET   CODE       C LABEL     INSTRUCTION OPERAND    COMMENT

            QR.c    34                                    errorcode[i-1] = temp_value ^ a[(generator[i-1] + lead_term) % 255];
    000001AA 62E3                   MOV         R14,R2
    000001AC 51FA                   MOV.L       @(40,R15),R1
    000001AE 325C                   ADD         R5,R2
    000001B0 D31B                   MOV.L       L655+10,R3 ; __modls
    000001B2 315C                   ADD         R5,R1
    000001B4 71FF                   ADD         #-1,R1
    000001B6 6110                   MOV.B       @R1,R1
    000001B8 611C                   EXTU.B      R1,R1
    000001BA 31BC                   ADD         R11,R1
    000001BC 430B                   JSR         @R3
    000001BE 60A3                   MOV         R10,R0
    000001C0 018C                   MOV.B       @(R0,R8),R1
    000001C2 7501                   ADD         #1,R5
    000001C4 216A                   XOR         R6,R1
    000001C6 3576                   CMP/HI      R7,R5
    000001C8 8FEA                   BF/S        L496
    000001CA 2214                   MOV.B       R1,@-R2
    000001CC A00B                   BRA         L498
    000001CE 0009                   NOP
    000001D0              L494:                             
            QR.c    35                            }
            QR.c    36                    } else { // polynomial division step is greatly simiplified (just a shift of all terms lef
                         +t) if leading coeff. is zero
            QR.c    37                            for (i = 1; i <= error_codewords; i++)
    000001D0 66C3                   MOV         R12,R6
    000001D2 65E3                   MOV         R14,R5
    000001D4 3676                   CMP/HI      R7,R6
    000001D6 8D06                   BT/S        L498
    000001D8 7501                   ADD         #1,R5
    000001DA              L500:                             
            QR.c    38                                    errorcode[i-1] = errorcode[i];
    000001DA 6253                   MOV         R5,R2
    000001DC 6354                   MOV.B       @R5+,R3
    000001DE 7601                   ADD         #1,R6
    000001E0 2234                   MOV.B       R3,@-R2
    000001E2 3676                   CMP/HI      R7,R6
    000001E4 8BF9                   BF          L500
    000001E6              L498:                             
    000001E6 65E3                   MOV         R14,R5
            QR.c    39                    }
            QR.c    40                    for (i=error_codewords+1; i <= data_codewords; i++) {
    000001E8 66F2                   MOV.L       @R15,R6
    000001EA 3646                   CMP/HI      R4,R6
    000001EC 8D06                   BT/S        L501
    000001EE 356C                   ADD         R6,R5
    000001F0              L502:                             
            QR.c    41                            errorcode[i-1] = errorcode[i];
    000001F0 6253                   MOV         R5,R2
    000001F2 7601                   ADD         #1,R6
    000001F4 6354                   MOV.B       @R5+,R3
    000001F6 3646                   CMP/HI      R4,R6
    000001F8 2234                   MOV.B       R3,@-R2
    000001FA 8BF9                   BF          L502
    000001FC              L501:                             
    000001FC 7901                   ADD         #1,R9
    000001FE              L492:                             




SH SERIES C/C++ Compiler (Ver. 6.0C)                                                                 03-Dec-2017 19:45:28  PAGE    7


SCT OFFSET   CODE       C LABEL     INSTRUCTION OPERAND    COMMENT

    000001FE 3946                   CMP/HI      R4,R9
    00000200 8BC3                   BF          L493
            QR.c    42                    }
            QR.c    43                    //printArrayBYTE("iter: ", error_codewords, errorcode);
            QR.c    44            }
            QR.c    45    }
    00000202 7F04                   ADD         #4,R15
    00000204 4F26                   LDS.L       @R15+,PR
    00000206 68F6                   MOV.L       @R15+,R8
    00000208 69F6                   MOV.L       @R15+,R9
    0000020A 6AF6                   MOV.L       @R15+,R10
    0000020C 6BF6                   MOV.L       @R15+,R11
    0000020E 6CF6                   MOV.L       @R15+,R12
    00000210 6DF6                   MOV.L       @R15+,R13
    00000212 000B                   RTS
    00000214 6EF6                   MOV.L       @R15+,R14
    00000216              L655:                             
    00000216 00FF                   .DATA.W     H'00FF
    00000218 <00000000>             .DATA.L     _a
    0000021C <00000000>             .DATA.L     _a_inv
    00000220 <00000000>             .DATA.L     __modls
            QR.c    46    /**
            QR.c    47     * [parseMessage description]
            QR.c    48     * @param freetext    [description]
            QR.c    49     * @param test_vector [description]
            QR.c    50     */
            QR.c    51    void parseMessage(const char* freetext, unsigned char test_vector[]) {
    00000224              _parseMessage:                   ; function: parseMessage
                                                           ; frame size=1240
                                                           ; used runtime library name:
                                                           ; __slow_mvn, __subdr, __muld, __dtou, __itod
    00000224 2F86                   MOV.L       R8,@-R15
    00000226 4F22                   STS.L       PR,@-R15
    00000228 4F12                   STS.L       MACL,@-R15
    0000022A 905C                   MOV.W       L656,R0    ; H'FB60
    0000022C 935C                   MOV.W       L656+2,R3  ; H'049C
    0000022E 3F0C                   ADD         R0,R15
    00000230 925B                   MOV.W       L656+4,R2  ; H'0498
    00000232 33FC                   ADD         R15,R3
            QR.c    52            unsigned char message[244] = {0};
    00000234 915A                   MOV.W       L656+6,R1  ; H'03A4
    00000236 32FC                   ADD         R15,R2
    00000238 9059                   MOV.W       L656+8,R0  ; H'00F4
    0000023A 2342                   MOV.L       R4,@R3
    0000023C 2252                   MOV.L       R5,@R2
    0000023E D22F                   MOV.L       L656+22,R2 ; L328
    00000240 D32F                   MOV.L       L656+26,R3 ; __slow_mvn
    00000242 430B                   JSR         @R3
    00000244 31FC                   ADD         R15,R1
            QR.c    53            int16_t message_length = strlen(freetext);
    00000246 904F                   MOV.W       L656+2,R0  ; H'049C
    00000248 D32E                   MOV.L       L656+30,R3 ; _strlen
    0000024A 430B                   JSR         @R3
    0000024C 04FE                   MOV.L       @(R0,R15),R4
            QR.c    54            int16_t qr_version = -1;
    0000024E E3FF                   MOV         #-1,R3
            QR.c    55            unsigned char* message_parameters;




SH SERIES C/C++ Compiler (Ver. 6.0C)                                                                 03-Dec-2017 19:45:28  PAGE    8


SCT OFFSET   CODE       C LABEL     INSTRUCTION OPERAND    COMMENT

            QR.c    56            int message_index;
            QR.c    57            
            QR.c    58            int16_t error_codewords;
            QR.c    59            unsigned char errorcode[30] = {0}; // 30 is highest EC count for Q-quality; 25 is highest dataword
                         + count for Q-quality
    00000250 D22D                   MOV.L       L656+34,R2 ; L335
    00000252 914D                   MOV.W       L656+10,R1 ; H'03A0
    00000254 31FC                   ADD         R15,R1
    00000256 2102                   MOV.L       R0,@R1
    00000258 904B                   MOV.W       L656+12,R0 ; H'039C
    0000025A 0F36                   MOV.L       R3,@(R0,R15)
    0000025C 914A                   MOV.W       L656+14,R1 ; H'0370
    0000025E 31FC                   ADD         R15,R1
    00000260 D327                   MOV.L       L656+26,R3 ; __slow_mvn
    00000262 430B                   JSR         @R3
    00000264 E01E                   MOV         #30,R0
            QR.c    60            int16_t total_blocks;
            QR.c    61            unsigned char interleaved_output[532] = {0}; // 532 valid up to VERSION 13-Q; 3706 valid up to VER
                         +SION 40-Q
    00000266 9146                   MOV.W       L656+16,R1 ; H'0158
    00000268 D228                   MOV.L       L656+38,R2 ; L338
    0000026A 9045                   MOV.W       L656+18,R0 ; H'0214
    0000026C D324                   MOV.L       L656+26,R3 ; __slow_mvn
    0000026E 430B                   JSR         @R3
    00000270 31FC                   ADD         R15,R1
            QR.c    62            int16_t message_offset;
            QR.c    63            int16_t block_number;
            QR.c    64            int16_t groups;
            QR.c    65            
            QR.c    66            int16_t output_size;
            QR.c    67            int16_t max_pixels;
            QR.c    68            unsigned char *image[64];
            QR.c    69            int16_t finder_pattern;
            QR.c    70            
            QR.c    71            int16_t y;
            QR.c    72            int16_t x;
            QR.c    73            int16_t dir;
            QR.c    74            int16_t primary_bits;
            QR.c    75            int16_t remainder_bits;
            QR.c    76            unsigned char working_byte;
            QR.c    77            int16_t interleaved_index;
            QR.c    78            unsigned char mask_number;
            QR.c    79            
            QR.c    80            uint16_t i,j;
            QR.c    81            uint16_t x0,y0;
            QR.c    82            //版本计算//
            QR.c    83            for (i=0; i < 40; i++) {
    00000272 E100                   MOV         #0,R1
    00000274 A057                   BRA         L503
    00000276 1F17                   MOV.L       R1,@(28,R15)
    00000278              L504:                             
            QR.c    84                    int16_t capacity = codeword_parameters[i][1]*codeword_parameters[i][2] + codeword_paramete
                         +rs[i][3]*codeword_parameters[i][4] - 2;
    00000278 52F7                   MOV.L       @(28,R15),R2
    0000027A 6323                   MOV         R2,R3
    0000027C D024                   MOV.L       L656+42,R0 ; H'00000001+_codeword_parameters
    0000027E 4200                   SHLL        R2




SH SERIES C/C++ Compiler (Ver. 6.0C)                                                                 03-Dec-2017 19:45:28  PAGE    9


SCT OFFSET   CODE       C LABEL     INSTRUCTION OPERAND    COMMENT

    00000280 323C                   ADD         R3,R2
    00000282 4208                   SHLL2       R2
    00000284 53F7                   MOV.L       @(28,R15),R3
    00000286 012C                   MOV.B       @(R0,R2),R1
    00000288 D022                   MOV.L       L656+46,R0 ; H'00000002+_codeword_parameters
    0000028A 611C                   EXTU.B      R1,R1
    0000028C 6233                   MOV         R3,R2
    0000028E 4300                   SHLL        R3
    00000290 332C                   ADD         R2,R3
    00000292 4308                   SHLL2       R3
    00000294 033C                   MOV.B       @(R0,R3),R3
    00000296 633C                   EXTU.B      R3,R3
    00000298 213E                   MULU        R3,R1
    0000029A 011A                   STS         MACL,R1
    0000029C 53F7                   MOV.L       @(28,R15),R3
    0000029E 6233                   MOV         R3,R2
    000002A0 D01D                   MOV.L       L656+50,R0 ; H'00000003+_codeword_parameters
    000002A2 4300                   SHLL        R3
    000002A4 332C                   ADD         R2,R3
    000002A6 4308                   SHLL2       R3
    000002A8 52F7                   MOV.L       @(28,R15),R2
    000002AA 033C                   MOV.B       @(R0,R3),R3
    000002AC 633C                   EXTU.B      R3,R3
    000002AE 6023                   MOV         R2,R0
    000002B0 4200                   SHLL        R2
    000002B2 320C                   ADD         R0,R2
    000002B4 4208                   SHLL2       R2
    000002B6 D019                   MOV.L       L656+54,R0 ; H'00000004+_codeword_parameters
    000002B8 022C                   MOV.B       @(R0,R2),R2
    000002BA 622C                   EXTU.B      R2,R2
    000002BC 232E                   MULU        R2,R3
    000002BE 031A                   STS         MACL,R3
    000002C0 313C                   ADD         R3,R1
    000002C2 71FE                   ADD         #-2,R1
    000002C4 1F13                   MOV.L       R1,@(12,R15)
            QR.c    85                    if (i > 8) capacity--;//subtract one extra byte because of switch to 16-bit length byte in
                         + QR Version 10+
    000002C6 E308                   MOV         #8,R3
    000002C8 52F7                   MOV.L       @(28,R15),R2
    000002CA 3236                   CMP/HI      R3,R2
    000002CC 8B02                   BF          L505
    000002CE 52F3                   MOV.L       @(12,R15),R2
    000002D0 72FF                   ADD         #-1,R2
    000002D2 1F23                   MOV.L       R2,@(12,R15)
    000002D4              L505:                             
            QR.c    86                    //printf("qr ver=%d  capacity=%d\n", i+1, capacity);
            QR.c    87                    if (message_length <= capacity) {
    000002D4 53F3                   MOV.L       @(12,R15),R3
    000002D6 900B                   MOV.W       L656+10,R0 ; H'03A0
    000002D8 01FE                   MOV.L       @(R0,R15),R1
    000002DA 3137                   CMP/GT      R3,R1
    000002DC 8920                   BT          L506
            QR.c    88                            qr_version = i;
    000002DE 52F7                   MOV.L       @(28,R15),R2
    000002E0 9007                   MOV.W       L656+12,R0 ; H'039C
            QR.c    89                            //printf("INFO: selected QR Version %d\n", qr_version+1);
            QR.c    90                            break;




SH SERIES C/C++ Compiler (Ver. 6.0C)                                                                 03-Dec-2017 19:45:28  PAGE   10


SCT OFFSET   CODE       C LABEL     INSTRUCTION OPERAND    COMMENT

    000002E2 A024                   BRA         L507
    000002E4 0F26                   MOV.L       R2,@(R0,R15)
    000002E6              L656:                             
    000002E6 FB60                   .DATA.W     H'FB60
    000002E8 049C                   .DATA.W     H'049C
    000002EA 0498                   .DATA.W     H'0498
    000002EC 03A4                   .DATA.W     H'03A4
    000002EE 00F4                   .DATA.W     H'00F4
    000002F0 03A0                   .DATA.W     H'03A0
    000002F2 039C                   .DATA.W     H'039C
    000002F4 0370                   .DATA.W     H'0370
    000002F6 0158                   .DATA.W     H'0158
    000002F8 0214                   .DATA.W     H'0214
    000002FA 0000                   .DATA.W     0
    000002FC <00000000>             .DATA.L     L328
    00000300 <00000000>             .DATA.L     __slow_mvn
    00000304 <00000000>             .DATA.L     _strlen
    00000308 <00000000>             .DATA.L     L335
    0000030C <00000000>             .DATA.L     L338
    00000310 <00000001>             .DATA.L     H'00000001+_codeword_parameters
    00000314 <00000002>             .DATA.L     H'00000002+_codeword_parameters
    00000318 <00000003>             .DATA.L     H'00000003+_codeword_parameters
    0000031C <00000004>             .DATA.L     H'00000004+_codeword_parameters
    00000320              L506:                             
    00000320 53F7                   MOV.L       @(28,R15),R3
    00000322 7301                   ADD         #1,R3
    00000324 1F37                   MOV.L       R3,@(28,R15)
    00000326              L503:                             
    00000326 E228                   MOV         #40,R2
    00000328 51F7                   MOV.L       @(28,R15),R1
    0000032A 3122                   CMP/HS      R2,R1
    0000032C 8BA4                   BF          L504
    0000032E              L507:                             
            QR.c    91                    }
            QR.c    92            }
            QR.c    93            if (qr_version < 0|| qr_version>10) {
    0000032E 906B                   MOV.W       L657,R0    ; H'039C
    00000330 03FE                   MOV.L       @(R0,R15),R3
    00000332 4311                   CMP/PZ      R3
    00000334 8901                   BT          L658
    00000336 A739                   BRA         L510
    00000338 0009                   NOP
    0000033A              L658:                             
    0000033A E10A                   MOV         #10,R1
    0000033C 9064                   MOV.W       L657,R0    ; H'039C
    0000033E 02FE                   MOV.L       @(R0,R15),R2
    00000340 3217                   CMP/GT      R1,R2
    00000342 8B01                   BF          L659
    00000344 A732                   BRA         L510
    00000346 0009                   NOP
    00000348              L659:                             
            QR.c    94                    //printf("ERROR: Unable to find QR version capable of encoding input message.  Sorry, try 
                         +again.\n");
            QR.c    95                    return;
            QR.c    96            }
            QR.c    97            
            QR.c    98            //信息编码//




SH SERIES C/C++ Compiler (Ver. 6.0C)                                                                 03-Dec-2017 19:45:28  PAGE   11


SCT OFFSET   CODE       C LABEL     INSTRUCTION OPERAND    COMMENT

            QR.c    99            message_parameters = codeword_parameters[qr_version];
    00000348 905E                   MOV.W       L657,R0    ; H'039C
    0000034A 03FE                   MOV.L       @(R0,R15),R3
    0000034C D132                   MOV.L       L657+16,R1 ; _codeword_parameters
    0000034E 6233                   MOV         R3,R2
    00000350 905B                   MOV.W       L657+2,R0  ; H'0398
    00000352 4300                   SHLL        R3
    00000354 332C                   ADD         R2,R3
    00000356 4308                   SHLL2       R3
    00000358 313C                   ADD         R3,R1
            QR.c   100            message_index = 0;
    0000035A E300                   MOV         #0,R3
    0000035C 0F16                   MOV.L       R1,@(R0,R15)
            QR.c   101            message[message_index] = 64; // "0100" Byte Encoding
    0000035E E140                   MOV         #64,R1
    00000360 9054                   MOV.W       L657+4,R0  ; H'0394
    00000362 0F36                   MOV.L       R3,@(R0,R15)
    00000364 9353                   MOV.W       L657+6,R3  ; H'03A4
    00000366 33FC                   ADD         R15,R3
    00000368 9050                   MOV.W       L657+4,R0  ; H'0394
    0000036A 02FE                   MOV.L       @(R0,R15),R2
            QR.c   102            if (qr_version > 8) { // QR Verisons 10+ for Byte data encoding represent length as 16-bits
    0000036C 904C                   MOV.W       L657,R0    ; H'039C
    0000036E 323C                   ADD         R3,R2
    00000370 2210                   MOV.B       R1,@R2
    00000372 E208                   MOV         #8,R2
    00000374 00FE                   MOV.L       @(R0,R15),R0
    00000376 3027                   CMP/GT      R2,R0
    00000378 8B1B                   BF          L511
            QR.c   103                    message_index++;
    0000037A 9047                   MOV.W       L657+4,R0  ; H'0394
            QR.c   104                    message[message_index++] = ((message_length & 5888) >> 4) | ((message_length & 240) >> 4);
    0000037C 9249                   MOV.W       L657+10,R2 ; H'03A0
    0000037E 01FE                   MOV.L       @(R0,R15),R1
    00000380 9044                   MOV.W       L657+4,R0  ; H'0394
    00000382 32FC                   ADD         R15,R2
    00000384 7101                   ADD         #1,R1
    00000386 6313                   MOV         R1,R3
    00000388 9141                   MOV.W       L657+6,R1  ; H'03A4
    0000038A 7301                   ADD         #1,R3
    0000038C 0F36                   MOV.L       R3,@(R0,R15)
    0000038E 31FC                   ADD         R15,R1
    00000390 903E                   MOV.W       L657+8,R0  ; H'1700
    00000392 73FF                   ADD         #-1,R3
    00000394 6222                   MOV.L       @R2,R2
    00000396 331C                   ADD         R1,R3
    00000398 2209                   AND         R0,R2
    0000039A E1FC                   MOV         #-4,R1
    0000039C 421C                   SHAD        R1,R2
    0000039E 9138                   MOV.W       L657+10,R1 ; H'03A0
    000003A0 31FC                   ADD         R15,R1
    000003A2 6012                   MOV.L       @R1,R0
    000003A4 C9F0                   AND         #240,R0
    000003A6 E1FC                   MOV         #-4,R1
    000003A8 401C                   SHAD        R1,R0
    000003AA 220B                   OR          R0,R2
    000003AC 2320                   MOV.B       R2,@R3




SH SERIES C/C++ Compiler (Ver. 6.0C)                                                                 03-Dec-2017 19:45:28  PAGE   12


SCT OFFSET   CODE       C LABEL     INSTRUCTION OPERAND    COMMENT

    000003AE A010                   BRA         L512
    000003B0 0009                   NOP
    000003B2              L511:                             
            QR.c   105            } else { // QR Verisons 1 through 9 for Byte data encoding represent length as 8-bits
            QR.c   106                    message[message_index++] |= ((message_length & 240) >> 4);
    000003B2 902B                   MOV.W       L657+4,R0  ; H'0394
    000003B4 01FE                   MOV.L       @(R0,R15),R1
    000003B6 7101                   ADD         #1,R1
    000003B8 9028                   MOV.W       L657+4,R0  ; H'0394
    000003BA 0F16                   MOV.L       R1,@(R0,R15)
    000003BC 71FF                   ADD         #-1,R1
    000003BE 331C                   ADD         R1,R3
    000003C0 9127                   MOV.W       L657+10,R1 ; H'03A0
    000003C2 31FC                   ADD         R15,R1
    000003C4 6012                   MOV.L       @R1,R0
    000003C6 E1FC                   MOV         #-4,R1
    000003C8 C9F0                   AND         #240,R0
    000003CA 401C                   SHAD        R1,R0
    000003CC 6130                   MOV.B       @R3,R1
    000003CE 210B                   OR          R0,R1
    000003D0 2310                   MOV.B       R1,@R3
    000003D2              L512:                             
            QR.c   107            }
            QR.c   108            message[message_index++] = ((message_length & 15) << 4) | ((freetext[0] & 240) >> 4);
    000003D2 E1FC                   MOV         #-4,R1
    000003D4 901A                   MOV.W       L657+4,R0  ; H'0394
    000003D6 03FE                   MOV.L       @(R0,R15),R3
    000003D8 9018                   MOV.W       L657+4,R0  ; H'0394
    000003DA 7301                   ADD         #1,R3
    000003DC 9217                   MOV.W       L657+6,R2  ; H'03A4
    000003DE 0F36                   MOV.L       R3,@(R0,R15)
    000003E0 9018                   MOV.W       L657+12,R0 ; H'049C
    000003E2 73FF                   ADD         #-1,R3
    000003E4 00FE                   MOV.L       @(R0,R15),R0
    000003E6 32FC                   ADD         R15,R2
    000003E8 6000                   MOV.B       @R0,R0
    000003EA 332C                   ADD         R2,R3
    000003EC C9F0                   AND         #240,R0
    000003EE 401C                   SHAD        R1,R0
    000003F0 910F                   MOV.W       L657+10,R1 ; H'03A0
    000003F2 6203                   MOV         R0,R2
    000003F4 31FC                   ADD         R15,R1
    000003F6 6012                   MOV.L       @R1,R0
    000003F8 C90F                   AND         #15,R0
    000003FA 4008                   SHLL2       R0
    000003FC 4008                   SHLL2       R0
    000003FE 220B                   OR          R0,R2
    00000400 2320                   MOV.B       R2,@R3
            QR.c   109            for (i=0; i < message_length; i++)
    00000402 E300                   MOV         #0,R3
    00000404 A027                   BRA         L513
    00000406 1F37                   MOV.L       R3,@(28,R15)
    00000408              L657:                             
    00000408 039C                   .DATA.W     H'039C
    0000040A 0398                   .DATA.W     H'0398
    0000040C 0394                   .DATA.W     H'0394
    0000040E 03A4                   .DATA.W     H'03A4




SH SERIES C/C++ Compiler (Ver. 6.0C)                                                                 03-Dec-2017 19:45:28  PAGE   13


SCT OFFSET   CODE       C LABEL     INSTRUCTION OPERAND    COMMENT

    00000410 1700                   .DATA.W     H'1700
    00000412 03A0                   .DATA.W     H'03A0
    00000414 049C                   .DATA.W     H'049C
    00000416 0000                   .DATA.W     0
    00000418 <00000000>             .DATA.L     _codeword_parameters
    0000041C              L514:                             
            QR.c   110                    message[message_index++] = ((freetext[i] & 15) << 4) | ((freetext[i+1] & 240) >> 4);
    0000041C 909D                   MOV.W       L660,R0    ; H'0394
    0000041E 01FE                   MOV.L       @(R0,R15),R1
    00000420 909B                   MOV.W       L660,R0    ; H'0394
    00000422 7101                   ADD         #1,R1
    00000424 939A                   MOV.W       L660+2,R3  ; H'03A4
    00000426 0F16                   MOV.L       R1,@(R0,R15)
    00000428 52F7                   MOV.L       @(28,R15),R2
    0000042A 71FF                   ADD         #-1,R1
    0000042C 9097                   MOV.W       L660+4,R0  ; H'049C
    0000042E 33FC                   ADD         R15,R3
    00000430 00FE                   MOV.L       @(R0,R15),R0
    00000432 313C                   ADD         R3,R1
    00000434 302C                   ADD         R2,R0
    00000436 E3FC                   MOV         #-4,R3
    00000438 8401                   MOV.B       @(1,R0),R0
    0000043A C9F0                   AND         #240,R0
    0000043C 403C                   SHAD        R3,R0
    0000043E 6303                   MOV         R0,R3
    00000440 908D                   MOV.W       L660+4,R0  ; H'049C
    00000442 00FE                   MOV.L       @(R0,R15),R0
    00000444 002C                   MOV.B       @(R0,R2),R0
    00000446 C90F                   AND         #15,R0
    00000448 4008                   SHLL2       R0
    0000044A 4008                   SHLL2       R0
    0000044C 230B                   OR          R0,R3
    0000044E 2130                   MOV.B       R3,@R1
    00000450 52F7                   MOV.L       @(28,R15),R2
    00000452 7201                   ADD         #1,R2
    00000454 1F27                   MOV.L       R2,@(28,R15)
    00000456              L513:                             
    00000456 9083                   MOV.W       L660+6,R0  ; H'03A0
    00000458 51F7                   MOV.L       @(28,R15),R1
    0000045A 03FE                   MOV.L       @(R0,R15),R3
    0000045C 3132                   CMP/HS      R3,R1
    0000045E 8BDD                   BF          L514
            QR.c   111    
            QR.c   112            {
            QR.c   113                    unsigned char pad[] = {236, 17};
    00000460 D244                   MOV.L       L660+26,R2 ; L366
    00000462 61F3                   MOV         R15,R1
    00000464 D344                   MOV.L       L660+30,R3 ; __slow_mvn
    00000466 710C                   ADD         #12,R1
    00000468 430B                   JSR         @R3
    0000046A E002                   MOV         #2,R0
            QR.c   114                    uint16_t pad_index = 0;
            QR.c   115                    uint16_t needed_pad_bytes =
            QR.c   116                            (message_parameters[1] * message_parameters[2])
            QR.c   117                            + (message_parameters[3] * message_parameters[4])
            QR.c   118                            - message_index;
    0000046C 9079                   MOV.W       L660+8,R0  ; H'0398




SH SERIES C/C++ Compiler (Ver. 6.0C)                                                                 03-Dec-2017 19:45:28  PAGE   14


SCT OFFSET   CODE       C LABEL     INSTRUCTION OPERAND    COMMENT

    0000046E E100                   MOV         #0,R1
    00000470 1F12                   MOV.L       R1,@(8,R15)
    00000472 03FE                   MOV.L       @(R0,R15),R3
    00000474 8431                   MOV.B       @(1,R3),R0
    00000476 610C                   EXTU.B      R0,R1
    00000478 8432                   MOV.B       @(2,R3),R0
    0000047A 600C                   EXTU.B      R0,R0
    0000047C 210E                   MULU        R0,R1
    0000047E 011A                   STS         MACL,R1
    00000480 8433                   MOV.B       @(3,R3),R0
    00000482 620C                   EXTU.B      R0,R2
    00000484 8434                   MOV.B       @(4,R3),R0
    00000486 600C                   EXTU.B      R0,R0
    00000488 220E                   MULU        R0,R2
    0000048A 021A                   STS         MACL,R2
    0000048C 9065                   MOV.W       L660,R0    ; H'0394
    0000048E 312C                   ADD         R2,R1
    00000490 00FE                   MOV.L       @(R0,R15),R0
            QR.c   119                    //printf("INFO: needed pad bytes: %d\n", needed_pad_bytes);
            QR.c   120                    for (i = 0; i < needed_pad_bytes; i++) {
    00000492 E200                   MOV         #0,R2
    00000494 3108                   SUB         R0,R1
    00000496 1F11                   MOV.L       R1,@(4,R15)
    00000498 A014                   BRA         L515
    0000049A 1F27                   MOV.L       R2,@(28,R15)
    0000049C              L516:                             
            QR.c   121                            message[message_index++] = pad[pad_index];
    0000049C 905D                   MOV.W       L660,R0    ; H'0394
    0000049E 03FE                   MOV.L       @(R0,R15),R3
    000004A0 905B                   MOV.W       L660,R0    ; H'0394
    000004A2 7301                   ADD         #1,R3
    000004A4 925A                   MOV.W       L660+2,R2  ; H'03A4
    000004A6 0F36                   MOV.L       R3,@(R0,R15)
    000004A8 51F2                   MOV.L       @(8,R15),R1
    000004AA 60F3                   MOV         R15,R0
    000004AC 73FF                   ADD         #-1,R3
    000004AE 32FC                   ADD         R15,R2
    000004B0 332C                   ADD         R2,R3
    000004B2 700C                   ADD         #12,R0
    000004B4 001C                   MOV.B       @(R0,R1),R0
    000004B6 2300                   MOV.B       R0,@R3
            QR.c   122                            pad_index ^= 1;
    000004B8 50F2                   MOV.L       @(8,R15),R0
    000004BA CA01                   XOR         #1,R0
    000004BC 1F02                   MOV.L       R0,@(8,R15)
    000004BE 53F7                   MOV.L       @(28,R15),R3
    000004C0 7301                   ADD         #1,R3
    000004C2 1F37                   MOV.L       R3,@(28,R15)
    000004C4              L515:                             
    000004C4 52F1                   MOV.L       @(4,R15),R2
    000004C6 51F7                   MOV.L       @(28,R15),R1
    000004C8 3122                   CMP/HS      R2,R1
    000004CA 8BE7                   BF          L516
            QR.c   123                    }
            QR.c   124            }
            QR.c   125            //printArrayBYTE("encoded input (with padding)", message_index, message);
            QR.c   126            




SH SERIES C/C++ Compiler (Ver. 6.0C)                                                                 03-Dec-2017 19:45:28  PAGE   15


SCT OFFSET   CODE       C LABEL     INSTRUCTION OPERAND    COMMENT

            QR.c   127            ////
            QR.c   128            error_codewords = message_parameters[0];
    000004CC 9049                   MOV.W       L660+8,R0  ; H'0398
    000004CE 03FE                   MOV.L       @(R0,R15),R3
    000004D0 9048                   MOV.W       L660+10,R0 ; H'0390
    000004D2 6230                   MOV.B       @R3,R2
    000004D4 622C                   EXTU.B      R2,R2
    000004D6 0F26                   MOV.L       R2,@(R0,R15)
            QR.c   129            total_blocks = message_parameters[1] + message_parameters[3];
    000004D8 9043                   MOV.W       L660+8,R0  ; H'0398
    000004DA 03FE                   MOV.L       @(R0,R15),R3
    000004DC 8431                   MOV.B       @(1,R3),R0
    000004DE 610C                   EXTU.B      R0,R1
    000004E0 8433                   MOV.B       @(3,R3),R0
    000004E2 600C                   EXTU.B      R0,R0
    000004E4 310C                   ADD         R0,R1
    000004E6 903E                   MOV.W       L660+12,R0 ; H'036C
    000004E8 0F16                   MOV.L       R1,@(R0,R15)
            QR.c   130            message_offset = 0;
    000004EA E100                   MOV         #0,R1
    000004EC 903C                   MOV.W       L660+14,R0 ; H'0154
    000004EE 0F16                   MOV.L       R1,@(R0,R15)
            QR.c   131            block_number = 0;
    000004F0 903B                   MOV.W       L660+16,R0 ; H'0150
    000004F2 0F16                   MOV.L       R1,@(R0,R15)
            QR.c   132            for (groups=0; groups < 2; groups++) {
    000004F4 903A                   MOV.W       L660+18,R0 ; H'014C
    000004F6 0F16                   MOV.L       R1,@(R0,R15)
    000004F8 A0B6                   BRA         L517
    000004FA 0009                   NOP
    000004FC              L518:                             
            QR.c   133                    int16_t num_blocks = message_parameters[groups*2+1];
    000004FC 9036                   MOV.W       L660+18,R0 ; H'014C
    000004FE 03FE                   MOV.L       @(R0,R15),R3
    00000500 902F                   MOV.W       L660+8,R0  ; H'0398
    00000502 4300                   SHLL        R3
    00000504 02FE                   MOV.L       @(R0,R15),R2
    00000506 332C                   ADD         R2,R3
    00000508 8431                   MOV.B       @(1,R3),R0
    0000050A 600C                   EXTU.B      R0,R0
    0000050C 1F03                   MOV.L       R0,@(12,R15)
            QR.c   134                    int16_t data_codewords = message_parameters[groups*2+2];
    0000050E 902D                   MOV.W       L660+18,R0 ; H'014C
    00000510 03FE                   MOV.L       @(R0,R15),R3
    00000512 4300                   SHLL        R3
    00000514 332C                   ADD         R2,R3
    00000516 8432                   MOV.B       @(2,R3),R0
    00000518 600C                   EXTU.B      R0,R0
    0000051A 1F02                   MOV.L       R0,@(8,R15)
            QR.c   135                    int16_t blocks;
            QR.c   136    
            QR.c   137                    for (blocks=0; blocks < num_blocks; blocks++) {
    0000051C A098                   BRA         L642
    0000051E E300                   MOV         #0,R3
    00000520              L520:                             
            QR.c   138                            int16_t interleaved_output_offset = block_number;
    00000520 9023                   MOV.W       L660+16,R0 ; H'0150




SH SERIES C/C++ Compiler (Ver. 6.0C)                                                                 03-Dec-2017 19:45:28  PAGE   16


SCT OFFSET   CODE       C LABEL     INSTRUCTION OPERAND    COMMENT

    00000522 02FE                   MOV.L       @(R0,R15),R2
            QR.c   139                            reedSolomon(data_codewords, message_offset, message, error_codewords, errorcode, &
                         +gen_poly[gen_offset[message_parameters[0]-13]]);
    00000524 901D                   MOV.W       L660+8,R0  ; H'0398
    00000526 2F22                   MOV.L       R2,@R15
    00000528 03FE                   MOV.L       @(R0,R15),R3
    0000052A 6230                   MOV.B       @R3,R2
    0000052C D013                   MOV.L       L660+34,R0 ; _gen_offset
    0000052E 622C                   EXTU.B      R2,R2
    00000530 911D                   MOV.W       L660+20,R1 ; H'0374
    00000532 72F3                   ADD         #-13,R2
    00000534 961C                   MOV.W       L660+22,R6 ; H'03AC
    00000536 032C                   MOV.B       @(R0,R2),R3
    00000538 D211                   MOV.L       L660+38,R2 ; _gen_poly
    0000053A 633C                   EXTU.B      R3,R3
    0000053C 9011                   MOV.W       L660+8,R0  ; H'0398
    0000053E 332C                   ADD         R2,R3
    00000540 2F36                   MOV.L       R3,@-R15
    00000542 31FC                   ADD         R15,R1
    00000544 2F16                   MOV.L       R1,@-R15
    00000546 36FC                   ADD         R15,R6
    00000548 07FE                   MOV.L       @(R0,R15),R7
    0000054A 9012                   MOV.W       L660+24,R0 ; H'015C
    0000054C 05FE                   MOV.L       @(R0,R15),R5
    0000054E BDF3                   BSR         _reedSolomon
    00000550 54F4                   MOV.L       @(16,R15),R4
    00000552 7F08                   ADD         #8,R15
            QR.c   140                            //printf("REED OUTPUT: data_codewords=%d,  message_offset=%d,  error_codewords=%d,
                         +  gen_offset=%d\n", data_codewords, message_offset, error_codewords, gen_offset[message_parameters[0]-13])
                         +;
            QR.c   141                            //printArrayBYTEwithOffset("Data Codewords: ", data_codewords, message, message_of
                         +fset);
            QR.c   142                            //printArrayBYTE("Error Codewords: ", error_codewords, errorcode);
            QR.c   143                            for (i = 0; i < data_codewords; i++) {
    00000554 E200                   MOV         #0,R2
    00000556 A03E                   BRA         L521
    00000558 1F27                   MOV.L       R2,@(28,R15)
    0000055A              L660:                             
    0000055A 0394                   .DATA.W     H'0394
    0000055C 03A4                   .DATA.W     H'03A4
    0000055E 049C                   .DATA.W     H'049C
    00000560 03A0                   .DATA.W     H'03A0
    00000562 0398                   .DATA.W     H'0398
    00000564 0390                   .DATA.W     H'0390
    00000566 036C                   .DATA.W     H'036C
    00000568 0154                   .DATA.W     H'0154
    0000056A 0150                   .DATA.W     H'0150
    0000056C 014C                   .DATA.W     H'014C
    0000056E 0374                   .DATA.W     H'0374
    00000570 03AC                   .DATA.W     H'03AC
    00000572 015C                   .DATA.W     H'015C
    00000574 <00000000>             .DATA.L     L366
    00000578 <00000000>             .DATA.L     __slow_mvn
    0000057C <00000000>             .DATA.L     _gen_offset
    00000580 <00000000>             .DATA.L     _gen_poly
    00000584              L522:                             
            QR.c   144                                    interleaved_output[interleaved_output_offset] = message[i + message_offset




SH SERIES C/C++ Compiler (Ver. 6.0C)                                                                 03-Dec-2017 19:45:28  PAGE   17


SCT OFFSET   CODE       C LABEL     INSTRUCTION OPERAND    COMMENT

                         +];
    00000584 939C                   MOV.W       L661,R3    ; H'0158
    00000586 33FC                   ADD         R15,R3
    00000588 61F2                   MOV.L       @R15,R1
    0000058A 313C                   ADD         R3,R1
    0000058C 9299                   MOV.W       L661+2,R2  ; H'03A4
    0000058E 32FC                   ADD         R15,R2
    00000590 9098                   MOV.W       L661+4,R0  ; H'0154
    00000592 00FE                   MOV.L       @(R0,R15),R0
    00000594 53F7                   MOV.L       @(28,R15),R3
    00000596 302C                   ADD         R2,R0
    00000598 003C                   MOV.B       @(R0,R3),R0
    0000059A 2100                   MOV.B       R0,@R1
            QR.c   145                                    if (i+1 < message_parameters[2]) // { 18, 2, 15, 2, 16}
    0000059C 53F7                   MOV.L       @(28,R15),R3
    0000059E 7301                   ADD         #1,R3
    000005A0 9091                   MOV.W       L661+6,R0  ; H'0398
    000005A2 01FE                   MOV.L       @(R0,R15),R1
    000005A4 8412                   MOV.B       @(2,R1),R0
    000005A6 600C                   EXTU.B      R0,R0
    000005A8 3302                   CMP/HS      R0,R3
    000005AA 8904                   BT          L523
            QR.c   146                                            interleaved_output_offset += message_parameters[1];
    000005AC 8411                   MOV.B       @(1,R1),R0
    000005AE 600C                   EXTU.B      R0,R0
    000005B0 63F2                   MOV.L       @R15,R3
    000005B2 330C                   ADD         R0,R3
    000005B4 2F32                   MOV.L       R3,@R15
    000005B6              L523:                             
            QR.c   147                                    if (i+1 < message_parameters[4])
    000005B6 52F7                   MOV.L       @(28,R15),R2
    000005B8 9085                   MOV.W       L661+6,R0  ; H'0398
    000005BA 7201                   ADD         #1,R2
    000005BC 03FE                   MOV.L       @(R0,R15),R3
    000005BE 8434                   MOV.B       @(4,R3),R0
    000005C0 600C                   EXTU.B      R0,R0
    000005C2 3202                   CMP/HS      R0,R2
    000005C4 8904                   BT          L524
            QR.c   148                                            interleaved_output_offset += message_parameters[3];
    000005C6 8433                   MOV.B       @(3,R3),R0
    000005C8 62F2                   MOV.L       @R15,R2
    000005CA 600C                   EXTU.B      R0,R0
    000005CC 320C                   ADD         R0,R2
    000005CE 2F22                   MOV.L       R2,@R15
    000005D0              L524:                             
    000005D0 53F7                   MOV.L       @(28,R15),R3
    000005D2 7301                   ADD         #1,R3
    000005D4 1F37                   MOV.L       R3,@(28,R15)
    000005D6              L521:                             
    000005D6 52F2                   MOV.L       @(8,R15),R2
    000005D8 51F7                   MOV.L       @(28,R15),R1
    000005DA 3122                   CMP/HS      R2,R1
    000005DC 8BD2                   BF          L522
            QR.c   149                            }
            QR.c   150                            interleaved_output_offset = message_parameters[1] * message_parameters[2] + messag
                         +e_parameters[3] * message_parameters[4] + block_number;
    000005DE 9072                   MOV.W       L661+6,R0  ; H'0398




SH SERIES C/C++ Compiler (Ver. 6.0C)                                                                 03-Dec-2017 19:45:28  PAGE   18


SCT OFFSET   CODE       C LABEL     INSTRUCTION OPERAND    COMMENT

    000005E0 03FE                   MOV.L       @(R0,R15),R3
    000005E2 8431                   MOV.B       @(1,R3),R0
    000005E4 620C                   EXTU.B      R0,R2
    000005E6 8432                   MOV.B       @(2,R3),R0
    000005E8 600C                   EXTU.B      R0,R0
    000005EA 220E                   MULU        R0,R2
    000005EC 8433                   MOV.B       @(3,R3),R0
    000005EE 021A                   STS         MACL,R2
    000005F0 610C                   EXTU.B      R0,R1
    000005F2 8434                   MOV.B       @(4,R3),R0
    000005F4 600C                   EXTU.B      R0,R0
    000005F6 210E                   MULU        R0,R1
    000005F8 9066                   MOV.W       L661+8,R0  ; H'0150
    000005FA 011A                   STS         MACL,R1
    000005FC 00FE                   MOV.L       @(R0,R15),R0
    000005FE 321C                   ADD         R1,R2
    00000600 320C                   ADD         R0,R2
            QR.c   151                            for (i = 0; i < error_codewords; i++) {
    00000602 E100                   MOV         #0,R1
    00000604 2F22                   MOV.L       R2,@R15
    00000606 A011                   BRA         L525
    00000608 1F17                   MOV.L       R1,@(28,R15)
    0000060A              L526:                             
            QR.c   152                                    interleaved_output[interleaved_output_offset] = errorcode[i];
    0000060A 9359                   MOV.W       L661,R3    ; H'0158
    0000060C 62F2                   MOV.L       @R15,R2
    0000060E 33FC                   ADD         R15,R3
    00000610 51F7                   MOV.L       @(28,R15),R1
    00000612 323C                   ADD         R3,R2
    00000614 9059                   MOV.W       L661+10,R0 ; H'0370
    00000616 30FC                   ADD         R15,R0
    00000618 001C                   MOV.B       @(R0,R1),R0
    0000061A 2200                   MOV.B       R0,@R2
            QR.c   153                                    interleaved_output_offset += total_blocks;
    0000061C 9056                   MOV.W       L661+12,R0 ; H'036C
    0000061E 02FE                   MOV.L       @(R0,R15),R2
    00000620 61F2                   MOV.L       @R15,R1
    00000622 312C                   ADD         R2,R1
    00000624 2F12                   MOV.L       R1,@R15
    00000626 53F7                   MOV.L       @(28,R15),R3
    00000628 7301                   ADD         #1,R3
    0000062A 1F37                   MOV.L       R3,@(28,R15)
    0000062C              L525:                             
    0000062C 904F                   MOV.W       L661+14,R0 ; H'0390
    0000062E 02FE                   MOV.L       @(R0,R15),R2
    00000630 51F7                   MOV.L       @(28,R15),R1
    00000632 3122                   CMP/HS      R2,R1
    00000634 8BE9                   BF          L526
            QR.c   154                            }
            QR.c   155                            message_offset += data_codewords;
    00000636 53F2                   MOV.L       @(8,R15),R3
    00000638 9044                   MOV.W       L661+4,R0  ; H'0154
    0000063A 02FE                   MOV.L       @(R0,R15),R2
    0000063C 9042                   MOV.W       L661+4,R0  ; H'0154
    0000063E 323C                   ADD         R3,R2
    00000640 0F26                   MOV.L       R2,@(R0,R15)
            QR.c   156                            block_number++;




SH SERIES C/C++ Compiler (Ver. 6.0C)                                                                 03-Dec-2017 19:45:28  PAGE   19


SCT OFFSET   CODE       C LABEL     INSTRUCTION OPERAND    COMMENT

    00000642 9041                   MOV.W       L661+8,R0  ; H'0150
    00000644 01FE                   MOV.L       @(R0,R15),R1
    00000646 7101                   ADD         #1,R1
    00000648 903E                   MOV.W       L661+8,R0  ; H'0150
    0000064A 0F16                   MOV.L       R1,@(R0,R15)
    0000064C 53F1                   MOV.L       @(4,R15),R3
    0000064E 7301                   ADD         #1,R3
    00000650              L642:                             
    00000650 1F31                   MOV.L       R3,@(4,R15)
    00000652 6133                   MOV         R3,R1
    00000654 52F3                   MOV.L       @(12,R15),R2
    00000656 3123                   CMP/GE      R2,R1
    00000658 8901                   BT          L662
    0000065A AF61                   BRA         L520
    0000065C 0009                   NOP
    0000065E              L662:                             
    0000065E 9037                   MOV.W       L661+16,R0 ; H'014C
    00000660 03FE                   MOV.L       @(R0,R15),R3
    00000662 7301                   ADD         #1,R3
    00000664 9034                   MOV.W       L661+16,R0 ; H'014C
    00000666 0F36                   MOV.L       R3,@(R0,R15)
    00000668              L517:                             
    00000668 9032                   MOV.W       L661+16,R0 ; H'014C
    0000066A E202                   MOV         #2,R2
    0000066C 01FE                   MOV.L       @(R0,R15),R1
    0000066E 3123                   CMP/GE      R2,R1
    00000670 8901                   BT          L663
    00000672 AF43                   BRA         L518
    00000674 0009                   NOP
    00000676              L663:                             
            QR.c   157                    }
            QR.c   158                    //printArrayBYTE("output: ", 346, interleaved_output);
            QR.c   159            }
            QR.c   160            
            QR.c   161            output_size =
            QR.c   162                    (message_parameters[1] * message_parameters[2]) + (message_parameters[3] * message_paramet
                         +ers[4]) // total data codewords
            QR.c   163                    + ((message_parameters[1] + message_parameters[3])) * message_parameters[0]; // total erro
                         +r codewords
    00000676 9026                   MOV.W       L661+6,R0  ; H'0398
    00000678 03FE                   MOV.L       @(R0,R15),R3
    0000067A 8431                   MOV.B       @(1,R3),R0
    0000067C 6130                   MOV.B       @R3,R1
    0000067E 620C                   EXTU.B      R0,R2
    00000680 8433                   MOV.B       @(3,R3),R0
    00000682 611C                   EXTU.B      R1,R1
    00000684 600C                   EXTU.B      R0,R0
    00000686 320C                   ADD         R0,R2
    00000688 0217                   MUL.L       R1,R2
    0000068A 021A                   STS         MACL,R2
    0000068C 8431                   MOV.B       @(1,R3),R0
    0000068E 610C                   EXTU.B      R0,R1
    00000690 8432                   MOV.B       @(2,R3),R0
    00000692 600C                   EXTU.B      R0,R0
    00000694 210E                   MULU        R0,R1
    00000696 011A                   STS         MACL,R1
    00000698 8433                   MOV.B       @(3,R3),R0




SH SERIES C/C++ Compiler (Ver. 6.0C)                                                                 03-Dec-2017 19:45:28  PAGE   20


SCT OFFSET   CODE       C LABEL     INSTRUCTION OPERAND    COMMENT

    0000069A 321C                   ADD         R1,R2
    0000069C 610C                   EXTU.B      R0,R1
    0000069E 8434                   MOV.B       @(4,R3),R0
    000006A0 600C                   EXTU.B      R0,R0
    000006A2 210E                   MULU        R0,R1
    000006A4 9015                   MOV.W       L661+18,R0 ; H'0148
    000006A6 011A                   STS         MACL,R1
    000006A8 321C                   ADD         R1,R2
    000006AA 0F26                   MOV.L       R2,@(R0,R15)
            QR.c   164            /*if (test_vector != 0) {
            QR.c   165                    for (i=0; i < output_size; i++) {
            QR.c   166                            if (interleaved_output[i] != test_vector[i]) {
            QR.c   167                                    printf("\aERROR: TEST FAILED!  Index=%d\n", i);
            QR.c   168                                    printArrayBYTE("output: ", output_size, interleaved_output);
            QR.c   169                                    return;
            QR.c   170                            }
            QR.c   171                    }
            QR.c   172                    printf("INFO: TEST PASSED!\n");
            QR.c   173            }
            QR.c   174            //printArrayBYTE("output: ", output_size, interleaved_output);*/
            QR.c   175            
            QR.c   176            max_pixels = (qr_version*4)+21;
    000006AC 9012                   MOV.W       L661+20,R0 ; H'039C
    000006AE 01FE                   MOV.L       @(R0,R15),R1
    000006B0 4108                   SHLL2       R1
    000006B2 7115                   ADD         #21,R1
    000006B4 900F                   MOV.W       L661+22,R0 ; H'0144
            QR.c   177            for(i=0;i<64;i++){
    000006B6 E200                   MOV         #0,R2
    000006B8 0F16                   MOV.L       R1,@(R0,R15)
    000006BA 1F27                   MOV.L       R2,@(28,R15)
    000006BC A024                   BRA         L527
    000006BE 0009                   NOP
    000006C0              L661:                             
    000006C0 0158                   .DATA.W     H'0158
    000006C2 03A4                   .DATA.W     H'03A4
    000006C4 0154                   .DATA.W     H'0154
    000006C6 0398                   .DATA.W     H'0398
    000006C8 0150                   .DATA.W     H'0150
    000006CA 0370                   .DATA.W     H'0370
    000006CC 036C                   .DATA.W     H'036C
    000006CE 0390                   .DATA.W     H'0390
    000006D0 014C                   .DATA.W     H'014C
    000006D2 0148                   .DATA.W     H'0148
    000006D4 039C                   .DATA.W     H'039C
    000006D6 0144                   .DATA.W     H'0144
    000006D8              L528:                             
            QR.c   178                    image[i]=(unsigned char *)malloc(max_pixels);
    000006D8 53F7                   MOV.L       @(28,R15),R3
    000006DA 62F3                   MOV         R15,R2
    000006DC 9073                   MOV.W       L664,R0    ; H'0144
    000006DE 4308                   SHLL2       R3
    000006E0 7244                   ADD         #68,R2
    000006E2 332C                   ADD         R2,R3
    000006E4 6833                   MOV         R3,R8
    000006E6 D339                   MOV.L       L664+6,R3  ; _malloc
    000006E8 430B                   JSR         @R3




SH SERIES C/C++ Compiler (Ver. 6.0C)                                                                 03-Dec-2017 19:45:28  PAGE   21


SCT OFFSET   CODE       C LABEL     INSTRUCTION OPERAND    COMMENT

    000006EA 04FE                   MOV.L       @(R0,R15),R4
    000006EC 2802                   MOV.L       R0,@R8
            QR.c   179                    if(image[i]==0){
    000006EE 62F3                   MOV         R15,R2
    000006F0 53F7                   MOV.L       @(28,R15),R3
    000006F2 7244                   ADD         #68,R2
    000006F4 4308                   SHLL2       R3
    000006F6 332C                   ADD         R2,R3
    000006F8 6132                   MOV.L       @R3,R1
    000006FA 2118                   TST         R1,R1
    000006FC 8B01                   BF          L665
    000006FE A555                   BRA         L510
    00000700 0009                   NOP
    00000702              L665:                             
    00000702 51F7                   MOV.L       @(28,R15),R1
    00000704 7101                   ADD         #1,R1
    00000706 1F17                   MOV.L       R1,@(28,R15)
    00000708              L527:                             
    00000708 52F7                   MOV.L       @(28,R15),R2
    0000070A E340                   MOV         #64,R3
    0000070C 3232                   CMP/HS      R3,R2
    0000070E 8BE3                   BF          L528
            QR.c   180                            return;
            QR.c   181                    }
            QR.c   182            }
            QR.c   183            for (i=0; i < max_pixels; i++) {
    00000710 A015                   BRA         L643
    00000712 E300                   MOV         #0,R3
    00000714              L531:                             
            QR.c   184            int j;
            QR.c   185                    for (j=0; j < max_pixels; j++) {
    00000714 E100                   MOV         #0,R1
    00000716 A00B                   BRA         L532
    00000718 1F13                   MOV.L       R1,@(12,R15)
    0000071A              L533:                             
            QR.c   186                            image[i][j] = 255; // set all pixels to white
    0000071A 63F3                   MOV         R15,R3
    0000071C 52F3                   MOV.L       @(12,R15),R2
    0000071E 7344                   ADD         #68,R3
    00000720 9152                   MOV.W       L664+2,R1  ; H'00FF
    00000722 50F7                   MOV.L       @(28,R15),R0
    00000724 4008                   SHLL2       R0
    00000726 003E                   MOV.L       @(R0,R3),R0
    00000728 0214                   MOV.B       R1,@(R0,R2)
    0000072A 52F3                   MOV.L       @(12,R15),R2
    0000072C 7201                   ADD         #1,R2
    0000072E 1F23                   MOV.L       R2,@(12,R15)
    00000730              L532:                             
    00000730 9049                   MOV.W       L664,R0    ; H'0144
    00000732 03FE                   MOV.L       @(R0,R15),R3
    00000734 51F3                   MOV.L       @(12,R15),R1
    00000736 3133                   CMP/GE      R3,R1
    00000738 8BEF                   BF          L533
    0000073A 53F7                   MOV.L       @(28,R15),R3
    0000073C 7301                   ADD         #1,R3
    0000073E              L643:                             
    0000073E 6133                   MOV         R3,R1




SH SERIES C/C++ Compiler (Ver. 6.0C)                                                                 03-Dec-2017 19:45:28  PAGE   22


SCT OFFSET   CODE       C LABEL     INSTRUCTION OPERAND    COMMENT

    00000740 1F37                   MOV.L       R3,@(28,R15)
    00000742 9040                   MOV.W       L664,R0    ; H'0144
    00000744 02FE                   MOV.L       @(R0,R15),R2
    00000746 3122                   CMP/HS      R2,R1
    00000748 8BE4                   BF          L531
            QR.c   187                    }
            QR.c   188            }
            QR.c   189            // add the three finder pattern modules to the qr code
            QR.c   190            finder_pattern = (qr_version*4)+14;
    0000074A 903E                   MOV.W       L664+4,R0  ; H'039C
    0000074C 03FE                   MOV.L       @(R0,R15),R3
    0000074E E040                   MOV         #64,R0
    00000750 4308                   SHLL2       R3
    00000752 730E                   ADD         #14,R3
    00000754 0F36                   MOV.L       R3,@(R0,R15)
            QR.c   191            for (i = 0; i < 7; i++) {
    00000756 A02E                   BRA         L644
    00000758 E200                   MOV         #0,R2
    0000075A              L535:                             
            QR.c   192                    image[0][i] = 0; //top left module
    0000075A E044                   MOV         #68,R0
    0000075C 53F7                   MOV.L       @(28,R15),R3
    0000075E E200                   MOV         #0,R2
    00000760 00FE                   MOV.L       @(R0,R15),R0
    00000762 0324                   MOV.B       R2,@(R0,R3)
            QR.c   193                    image[6][i] = 0;
    00000764 53F7                   MOV.L       @(28,R15),R3
    00000766 E05C                   MOV         #92,R0
    00000768 00FE                   MOV.L       @(R0,R15),R0
    0000076A 0324                   MOV.B       R2,@(R0,R3)
            QR.c   194                    image[0][finder_pattern+i] = 0; //top right module
    0000076C E040                   MOV         #64,R0
    0000076E 03FE                   MOV.L       @(R0,R15),R3
    00000770 E044                   MOV         #68,R0
    00000772 01FE                   MOV.L       @(R0,R15),R1
    00000774 50F7                   MOV.L       @(28,R15),R0
    00000776 313C                   ADD         R3,R1
    00000778 6323                   MOV         R2,R3
    0000077A 0134                   MOV.B       R3,@(R0,R1)
            QR.c   195                    image[6][finder_pattern+i] = 0;
    0000077C E040                   MOV         #64,R0
    0000077E 03FE                   MOV.L       @(R0,R15),R3
    00000780 E05C                   MOV         #92,R0
    00000782 02FE                   MOV.L       @(R0,R15),R2
    00000784 50F7                   MOV.L       @(28,R15),R0
    00000786 323C                   ADD         R3,R2
    00000788 E300                   MOV         #0,R3
    0000078A 0234                   MOV.B       R3,@(R0,R2)
            QR.c   196                    image[finder_pattern][i] = 0; //bottom left module
    0000078C E040                   MOV         #64,R0
    0000078E 63F3                   MOV         R15,R3
    00000790 02FE                   MOV.L       @(R0,R15),R2
    00000792 7344                   ADD         #68,R3
    00000794 4208                   SHLL2       R2
    00000796 323C                   ADD         R3,R2
    00000798 51F7                   MOV.L       @(28,R15),R1
    0000079A 6022                   MOV.L       @R2,R0




SH SERIES C/C++ Compiler (Ver. 6.0C)                                                                 03-Dec-2017 19:45:28  PAGE   23


SCT OFFSET   CODE       C LABEL     INSTRUCTION OPERAND    COMMENT

    0000079C E200                   MOV         #0,R2
    0000079E 0124                   MOV.B       R2,@(R0,R1)
            QR.c   197                    image[max_pixels-1][i] = 0;
    000007A0 9011                   MOV.W       L664,R0    ; H'0144
    000007A2 01FE                   MOV.L       @(R0,R15),R1
    000007A4 52F7                   MOV.L       @(28,R15),R2
    000007A6 71FF                   ADD         #-1,R1
    000007A8 4108                   SHLL2       R1
    000007AA 313C                   ADD         R3,R1
    000007AC 6012                   MOV.L       @R1,R0
    000007AE E100                   MOV         #0,R1
    000007B0 0214                   MOV.B       R1,@(R0,R2)
    000007B2 52F7                   MOV.L       @(28,R15),R2
    000007B4 7201                   ADD         #1,R2
    000007B6              L644:                             
    000007B6 E307                   MOV         #7,R3
    000007B8 1F27                   MOV.L       R2,@(28,R15)
    000007BA 6123                   MOV         R2,R1
    000007BC 3132                   CMP/HS      R3,R1
    000007BE 8BCC                   BF          L535
            QR.c   198            }
            QR.c   199            for (i = 1; i < 6; i++) {
    000007C0 E301                   MOV         #1,R3
    000007C2 A038                   BRA         L536
    000007C4 1F37                   MOV.L       R3,@(28,R15)
    000007C6              L664:                             
    000007C6 0144                   .DATA.W     H'0144
    000007C8 00FF                   .DATA.W     H'00FF
    000007CA 039C                   .DATA.W     H'039C
    000007CC <00000000>             .DATA.L     _malloc
    000007D0              L537:                             
            QR.c   200                    image[i][0] = 0; //top left module
    000007D0 51F7                   MOV.L       @(28,R15),R1
    000007D2 63F3                   MOV         R15,R3
    000007D4 4108                   SHLL2       R1
    000007D6 7344                   ADD         #68,R3
    000007D8 313C                   ADD         R3,R1
    000007DA E000                   MOV         #0,R0
    000007DC 6212                   MOV.L       @R1,R2
    000007DE 2200                   MOV.B       R0,@R2
            QR.c   201                    image[i][6] = 0;
    000007E0 52F7                   MOV.L       @(28,R15),R2
    000007E2 E000                   MOV         #0,R0
    000007E4 4208                   SHLL2       R2
    000007E6 323C                   ADD         R3,R2
    000007E8 6122                   MOV.L       @R2,R1
    000007EA 8016                   MOV.B       R0,@(6,R1)
            QR.c   202                    image[i][finder_pattern] = 0; //top right module
    000007EC 50F7                   MOV.L       @(28,R15),R0
    000007EE 61F3                   MOV         R15,R1
    000007F0 4008                   SHLL2       R0
    000007F2 7140                   ADD         #64,R1
    000007F4 003E                   MOV.L       @(R0,R3),R0
    000007F6 6212                   MOV.L       @R1,R2
    000007F8 E100                   MOV         #0,R1
    000007FA 0214                   MOV.B       R1,@(R0,R2)
            QR.c   203                    image[i][max_pixels-1] = 0;




SH SERIES C/C++ Compiler (Ver. 6.0C)                                                                 03-Dec-2017 19:45:28  PAGE   24


SCT OFFSET   CODE       C LABEL     INSTRUCTION OPERAND    COMMENT

    000007FC 50F7                   MOV.L       @(28,R15),R0
    000007FE 4008                   SHLL2       R0
    00000800 003E                   MOV.L       @(R0,R3),R0
    00000802 9174                   MOV.W       L666,R1    ; H'0144
    00000804 31FC                   ADD         R15,R1
    00000806 6212                   MOV.L       @R1,R2
    00000808 72FF                   ADD         #-1,R2
    0000080A E100                   MOV         #0,R1
    0000080C 0214                   MOV.B       R1,@(R0,R2)
            QR.c   204                    image[finder_pattern+i][0] = 0; //bottom left module
    0000080E E040                   MOV         #64,R0
    00000810 52F7                   MOV.L       @(28,R15),R2
    00000812 00FE                   MOV.L       @(R0,R15),R0
    00000814 302C                   ADD         R2,R0
    00000816 4008                   SHLL2       R0
    00000818 013E                   MOV.L       @(R0,R3),R1
    0000081A E000                   MOV         #0,R0
    0000081C 2100                   MOV.B       R0,@R1
            QR.c   205                    image[finder_pattern+i][6] = 0;
    0000081E E040                   MOV         #64,R0
    00000820 52F7                   MOV.L       @(28,R15),R2
    00000822 01FE                   MOV.L       @(R0,R15),R1
    00000824 312C                   ADD         R2,R1
    00000826 4108                   SHLL2       R1
    00000828 313C                   ADD         R3,R1
    0000082A E000                   MOV         #0,R0
    0000082C 6112                   MOV.L       @R1,R1
    0000082E 8016                   MOV.B       R0,@(6,R1)
    00000830 52F7                   MOV.L       @(28,R15),R2
    00000832 7201                   ADD         #1,R2
    00000834 1F27                   MOV.L       R2,@(28,R15)
    00000836              L536:                             
    00000836 E306                   MOV         #6,R3
    00000838 51F7                   MOV.L       @(28,R15),R1
    0000083A 3132                   CMP/HS      R3,R1
    0000083C 8BC8                   BF          L537
            QR.c   206            }
            QR.c   207            for (i = 2; i < 5; i++) {
    0000083E A02A                   BRA         L645
    00000840 E302                   MOV         #2,R3
    00000842              L539:                             
            QR.c   208            int j;
            QR.c   209                    for (j = 0; j < 3; j++) {
    00000842 E100                   MOV         #0,R1
    00000844 A021                   BRA         L540
    00000846 1F13                   MOV.L       R1,@(12,R15)
    00000848              L541:                             
            QR.c   210                            image[2+j][i] = 0;
    00000848 52F3                   MOV.L       @(12,R15),R2
    0000084A 63F3                   MOV         R15,R3
    0000084C 51F7                   MOV.L       @(28,R15),R1
    0000084E 4208                   SHLL2       R2
    00000850 7344                   ADD         #68,R3
    00000852 323C                   ADD         R3,R2
    00000854 5022                   MOV.L       @(8,R2),R0
    00000856 E200                   MOV         #0,R2
    00000858 0124                   MOV.B       R2,@(R0,R1)




SH SERIES C/C++ Compiler (Ver. 6.0C)                                                                 03-Dec-2017 19:45:28  PAGE   25


SCT OFFSET   CODE       C LABEL     INSTRUCTION OPERAND    COMMENT

            QR.c   211                            image[2+j][i+finder_pattern] = 0;
    0000085A E040                   MOV         #64,R0
    0000085C 51F3                   MOV.L       @(12,R15),R1
    0000085E 4108                   SHLL2       R1
    00000860 02FE                   MOV.L       @(R0,R15),R2
    00000862 313C                   ADD         R3,R1
    00000864 5012                   MOV.L       @(8,R1),R0
    00000866 302C                   ADD         R2,R0
    00000868 51F7                   MOV.L       @(28,R15),R1
    0000086A E200                   MOV         #0,R2
    0000086C 0124                   MOV.B       R2,@(R0,R1)
            QR.c   212                            image[finder_pattern+2+j][i] = 0;
    0000086E E040                   MOV         #64,R0
    00000870 52F3                   MOV.L       @(12,R15),R2
    00000872 01FE                   MOV.L       @(R0,R15),R1
    00000874 312C                   ADD         R2,R1
    00000876 7102                   ADD         #2,R1
    00000878 4108                   SHLL2       R1
    0000087A 313C                   ADD         R3,R1
    0000087C 53F7                   MOV.L       @(28,R15),R3
    0000087E 6012                   MOV.L       @R1,R0
    00000880 E100                   MOV         #0,R1
    00000882 0314                   MOV.B       R1,@(R0,R3)
    00000884 53F3                   MOV.L       @(12,R15),R3
    00000886 7301                   ADD         #1,R3
    00000888 1F33                   MOV.L       R3,@(12,R15)
    0000088A              L540:                             
    0000088A E203                   MOV         #3,R2
    0000088C 51F3                   MOV.L       @(12,R15),R1
    0000088E 3123                   CMP/GE      R2,R1
    00000890 8BDA                   BF          L541
    00000892 53F7                   MOV.L       @(28,R15),R3
    00000894 7301                   ADD         #1,R3
    00000896              L645:                             
    00000896 E205                   MOV         #5,R2
    00000898 1F37                   MOV.L       R3,@(28,R15)
    0000089A 6133                   MOV         R3,R1
    0000089C 3122                   CMP/HS      R2,R1
    0000089E 8BD0                   BF          L539
            QR.c   213                    }
            QR.c   214            }
            QR.c   215            //insert alignment patterns
            QR.c   216            if (qr_version > 0) { // no pattern for QR Version 1 (our qr_verison == 0)
    000008A0 9026                   MOV.W       L666+2,R0  ; H'039C
    000008A2 03FE                   MOV.L       @(R0,R15),R3
    000008A4 4315                   CMP/PL      R3
    000008A6 8901                   BT          L667
    000008A8 A0D1                   BRA         L542
    000008AA 0009                   NOP
    000008AC              L667:                             
            QR.c   217                    unsigned char center[7] = {0};
    000008AC D211                   MOV.L       L666+6,R2  ; L391
    000008AE 61F3                   MOV         R15,R1
    000008B0 D311                   MOV.L       L666+10,R3 ; __slow_mvn
    000008B2 7108                   ADD         #8,R1
    000008B4 430B                   JSR         @R3
    000008B6 E007                   MOV         #7,R0




SH SERIES C/C++ Compiler (Ver. 6.0C)                                                                 03-Dec-2017 19:45:28  PAGE   26


SCT OFFSET   CODE       C LABEL     INSTRUCTION OPERAND    COMMENT

            QR.c   218                    center[0] = 6;
    000008B8 E006                   MOV         #6,R0
            QR.c   219                    for (i=1; i < 7; i++)
    000008BA E301                   MOV         #1,R3
    000008BC 80F8                   MOV.B       R0,@(8,R15)
    000008BE A00D                   BRA         L543
    000008C0 1F37                   MOV.L       R3,@(28,R15)
    000008C2              L544:                             
            QR.c   220                            center[i] = message_parameters[5+i];
    000008C2 63F3                   MOV         R15,R3
    000008C4 52F7                   MOV.L       @(28,R15),R2
    000008C6 7308                   ADD         #8,R3
    000008C8 51F7                   MOV.L       @(28,R15),R1
    000008CA 323C                   ADD         R3,R2
    000008CC 9011                   MOV.W       L666+4,R0  ; H'0398
    000008CE 00FE                   MOV.L       @(R0,R15),R0
    000008D0 301C                   ADD         R1,R0
    000008D2 8405                   MOV.B       @(5,R0),R0
    000008D4 2200                   MOV.B       R0,@R2
    000008D6 52F7                   MOV.L       @(28,R15),R2
    000008D8 7201                   ADD         #1,R2
    000008DA 1F27                   MOV.L       R2,@(28,R15)
    000008DC              L543:                             
    000008DC 51F7                   MOV.L       @(28,R15),R1
    000008DE E307                   MOV         #7,R3
    000008E0 3132                   CMP/HS      R3,R1
    000008E2 8BEE                   BF          L544
            QR.c   221                    for (i=0; i < 7; i++) {
    000008E4 A0AC                   BRA         L647
    000008E6 E300                   MOV         #0,R3
    000008E8              L546:                             
            QR.c   222                int j;
            QR.c   223                            for (j=0; j < 7; j++) {
    000008E8 E100                   MOV         #0,R1
    000008EA A0A1                   BRA         L547
    000008EC 1F11                   MOV.L       R1,@(4,R15)
    000008EE              L666:                             
    000008EE 0144                   .DATA.W     H'0144
    000008F0 039C                   .DATA.W     H'039C
    000008F2 0398                   .DATA.W     H'0398
    000008F4 <00000000>             .DATA.L     L391
    000008F8 <00000000>             .DATA.L     __slow_mvn
    000008FC              L548:                             
            QR.c   224                                    if ((center[i] != 0) && (center[j] != 0)) {
    000008FC 52F7                   MOV.L       @(28,R15),R2
    000008FE 63F3                   MOV         R15,R3
    00000900 7308                   ADD         #8,R3
    00000902 323C                   ADD         R3,R2
    00000904 6120                   MOV.B       @R2,R1
    00000906 2118                   TST         R1,R1
    00000908 8B01                   BF          L668
    0000090A A08E                   BRA         L549
    0000090C 0009                   NOP
    0000090E              L668:                             
    0000090E 50F1                   MOV.L       @(4,R15),R0
    00000910 023C                   MOV.B       @(R0,R3),R2
    00000912 622C                   EXTU.B      R2,R2




SH SERIES C/C++ Compiler (Ver. 6.0C)                                                                 03-Dec-2017 19:45:28  PAGE   27


SCT OFFSET   CODE       C LABEL     INSTRUCTION OPERAND    COMMENT

    00000914 2228                   TST         R2,R2
    00000916 8B01                   BF          L669
    00000918 A087                   BRA         L549
    0000091A 0009                   NOP
    0000091C              L669:                             
            QR.c   225                                            //printf("coord=(%d,%d)\n", center[i], center[j]);
            QR.c   226                                            if (image[center[i]][center[j]] == 255) { //only add if bit is cur
                         +rently white
    0000091C 50F7                   MOV.L       @(28,R15),R0
    0000091E 62F3                   MOV         R15,R2
    00000920 63F3                   MOV         R15,R3
    00000922 7308                   ADD         #8,R3
    00000924 003C                   MOV.B       @(R0,R3),R0
    00000926 7244                   ADD         #68,R2
    00000928 600C                   EXTU.B      R0,R0
    0000092A 4008                   SHLL2       R0
    0000092C 302C                   ADD         R2,R0
    0000092E 6202                   MOV.L       @R0,R2
    00000930 50F1                   MOV.L       @(4,R15),R0
    00000932 013C                   MOV.B       @(R0,R3),R1
    00000934 611C                   EXTU.B      R1,R1
    00000936 321C                   ADD         R1,R2
    00000938 6120                   MOV.B       @R2,R1
    0000093A 611C                   EXTU.B      R1,R1
    0000093C 928A                   MOV.W       L670,R2    ; H'00FF
    0000093E 3120                   CMP/EQ      R2,R1
    00000940 8B73                   BF          L549
            QR.c   227                                                    int16_t k;
            QR.c   228                                                    image[center[i]][center[j]] = 0;
    00000942 62F3                   MOV         R15,R2
    00000944 50F7                   MOV.L       @(28,R15),R0
    00000946 7244                   ADD         #68,R2
    00000948 003C                   MOV.B       @(R0,R3),R0
    0000094A 600C                   EXTU.B      R0,R0
    0000094C 4008                   SHLL2       R0
    0000094E 302C                   ADD         R2,R0
    00000950 6802                   MOV.L       @R0,R8
    00000952 50F1                   MOV.L       @(4,R15),R0
    00000954 023C                   MOV.B       @(R0,R3),R2
    00000956 622C                   EXTU.B      R2,R2
    00000958 382C                   ADD         R2,R8
    0000095A E200                   MOV         #0,R2
    0000095C 2820                   MOV.B       R2,@R8
            QR.c   229                                                    for (k=0; k < 5; k++) {
    0000095E 6123                   MOV         R2,R1
    00000960 A027                   BRA         L646
    00000962 0009                   NOP
    00000964              L552:                             
            QR.c   230                                                            image[center[i]-2][center[j]-2+k] = 0;
    00000964 50F7                   MOV.L       @(28,R15),R0
    00000966 62F3                   MOV         R15,R2
    00000968 63F3                   MOV         R15,R3
    0000096A 7308                   ADD         #8,R3
    0000096C 003C                   MOV.B       @(R0,R3),R0
    0000096E 7244                   ADD         #68,R2
    00000970 600C                   EXTU.B      R0,R0
    00000972 70FE                   ADD         #-2,R0




SH SERIES C/C++ Compiler (Ver. 6.0C)                                                                 03-Dec-2017 19:45:28  PAGE   28


SCT OFFSET   CODE       C LABEL     INSTRUCTION OPERAND    COMMENT

    00000974 4008                   SHLL2       R0
    00000976 302C                   ADD         R2,R0
    00000978 6202                   MOV.L       @R0,R2
    0000097A 50F1                   MOV.L       @(4,R15),R0
    0000097C 013C                   MOV.B       @(R0,R3),R1
    0000097E 611C                   EXTU.B      R1,R1
    00000980 60F2                   MOV.L       @R15,R0
    00000982 310C                   ADD         R0,R1
    00000984 71FE                   ADD         #-2,R1
    00000986 321C                   ADD         R1,R2
    00000988 E100                   MOV         #0,R1
    0000098A 2210                   MOV.B       R1,@R2
            QR.c   231                                                            image[center[i]+2][center[j]-2+k] = 0;
    0000098C 50F7                   MOV.L       @(28,R15),R0
    0000098E 62F3                   MOV         R15,R2
    00000990 003C                   MOV.B       @(R0,R3),R0
    00000992 7244                   ADD         #68,R2
    00000994 600C                   EXTU.B      R0,R0
    00000996 4008                   SHLL2       R0
    00000998 302C                   ADD         R2,R0
    0000099A 5802                   MOV.L       @(8,R0),R8
    0000099C 50F1                   MOV.L       @(4,R15),R0
    0000099E 023C                   MOV.B       @(R0,R3),R2
    000009A0 622C                   EXTU.B      R2,R2
    000009A2 61F2                   MOV.L       @R15,R1
    000009A4 321C                   ADD         R1,R2
    000009A6 72FE                   ADD         #-2,R2
    000009A8 382C                   ADD         R2,R8
    000009AA E200                   MOV         #0,R2
    000009AC 2820                   MOV.B       R2,@R8
    000009AE 61F2                   MOV.L       @R15,R1
    000009B0 7101                   ADD         #1,R1
    000009B2              L646:                             
    000009B2 E305                   MOV         #5,R3
    000009B4 2F12                   MOV.L       R1,@R15
    000009B6 6213                   MOV         R1,R2
    000009B8 3233                   CMP/GE      R3,R2
    000009BA 8BD3                   BF          L552
            QR.c   232                                                    }
            QR.c   233                                                    for (k=0; k < 3; k++) {
    000009BC E300                   MOV         #0,R3
    000009BE A030                   BRA         L553
    000009C0 2F32                   MOV.L       R3,@R15
    000009C2              L554:                             
            QR.c   234                                                            image[center[i]-1+k][center[j]-2] = 0;
    000009C2 63F3                   MOV         R15,R3
    000009C4 50F7                   MOV.L       @(28,R15),R0
    000009C6 61F3                   MOV         R15,R1
    000009C8 62F2                   MOV.L       @R15,R2
    000009CA 7308                   ADD         #8,R3
    000009CC 003C                   MOV.B       @(R0,R3),R0
    000009CE 7144                   ADD         #68,R1
    000009D0 600C                   EXTU.B      R0,R0
    000009D2 302C                   ADD         R2,R0
    000009D4 52F1                   MOV.L       @(4,R15),R2
    000009D6 70FF                   ADD         #-1,R0
    000009D8 4008                   SHLL2       R0




SH SERIES C/C++ Compiler (Ver. 6.0C)                                                                 03-Dec-2017 19:45:28  PAGE   29


SCT OFFSET   CODE       C LABEL     INSTRUCTION OPERAND    COMMENT

    000009DA 63F3                   MOV         R15,R3
    000009DC 001E                   MOV.L       @(R0,R1),R0
    000009DE 7308                   ADD         #8,R3
    000009E0 323C                   ADD         R3,R2
    000009E2 E300                   MOV         #0,R3
    000009E4 6220                   MOV.B       @R2,R2
    000009E6 622C                   EXTU.B      R2,R2
    000009E8 72FE                   ADD         #-2,R2
    000009EA 0234                   MOV.B       R3,@(R0,R2)
            QR.c   235                                                            image[center[i]-1+k][center[j]+2] = 0;
    000009EC 52F7                   MOV.L       @(28,R15),R2
    000009EE 63F3                   MOV         R15,R3
    000009F0 60F2                   MOV.L       @R15,R0
    000009F2 7308                   ADD         #8,R3
    000009F4 323C                   ADD         R3,R2
    000009F6 6220                   MOV.B       @R2,R2
    000009F8 622C                   EXTU.B      R2,R2
    000009FA 320C                   ADD         R0,R2
    000009FC 72FF                   ADD         #-1,R2
    000009FE 4208                   SHLL2       R2
    00000A00 50F1                   MOV.L       @(4,R15),R0
    00000A02 61F3                   MOV         R15,R1
    00000A04 7144                   ADD         #68,R1
    00000A06 321C                   ADD         R1,R2
    00000A08 6222                   MOV.L       @R2,R2
    00000A0A 63F3                   MOV         R15,R3
    00000A0C 7308                   ADD         #8,R3
    00000A0E 003C                   MOV.B       @(R0,R3),R0
    00000A10 600C                   EXTU.B      R0,R0
    00000A12 302C                   ADD         R2,R0
    00000A14 E200                   MOV         #0,R2
    00000A16 E302                   MOV         #2,R3
    00000A18 330C                   ADD         R0,R3
    00000A1A 2320                   MOV.B       R2,@R3
    00000A1C 60F2                   MOV.L       @R15,R0
    00000A1E 7001                   ADD         #1,R0
    00000A20 2F02                   MOV.L       R0,@R15
    00000A22              L553:                             
    00000A22 E303                   MOV         #3,R3
    00000A24 61F2                   MOV.L       @R15,R1
    00000A26 3133                   CMP/GE      R3,R1
    00000A28 8BCB                   BF          L554
    00000A2A              L549:                             
    00000A2A 53F1                   MOV.L       @(4,R15),R3
    00000A2C 7301                   ADD         #1,R3
    00000A2E 1F31                   MOV.L       R3,@(4,R15)
    00000A30              L547:                             
    00000A30 51F1                   MOV.L       @(4,R15),R1
    00000A32 E207                   MOV         #7,R2
    00000A34 3123                   CMP/GE      R2,R1
    00000A36 8901                   BT          L671
    00000A38 AF60                   BRA         L548
    00000A3A 0009                   NOP
    00000A3C              L671:                             
    00000A3C 53F7                   MOV.L       @(28,R15),R3
    00000A3E 7301                   ADD         #1,R3
    00000A40              L647:                             




SH SERIES C/C++ Compiler (Ver. 6.0C)                                                                 03-Dec-2017 19:45:28  PAGE   30


SCT OFFSET   CODE       C LABEL     INSTRUCTION OPERAND    COMMENT

    00000A40 1F37                   MOV.L       R3,@(28,R15)
    00000A42 E207                   MOV         #7,R2
    00000A44 6133                   MOV         R3,R1
    00000A46 3122                   CMP/HS      R2,R1
    00000A48 8901                   BT          L672
    00000A4A AF4D                   BRA         L546
    00000A4C 0009                   NOP
    00000A4E              L672:                             
    00000A4E              L542:                             
            QR.c   236                                                    }
            QR.c   237                                            }
            QR.c   238                                    }
            QR.c   239                            }
            QR.c   240                    }
            QR.c   241            }
            QR.c   242            //adding timing patterns
            QR.c   243            for (i=8; i < max_pixels - 8; i+=2) {
    00000A4E E308                   MOV         #8,R3
    00000A50 A011                   BRA         L555
    00000A52 1F37                   MOV.L       R3,@(28,R15)
    00000A54              L670:                             
    00000A54 00FF                   .DATA.W     H'00FF
    00000A56              L556:                             
            QR.c   244                    image[6][i] = 0;
    00000A56 E05C                   MOV         #92,R0
    00000A58 51F7                   MOV.L       @(28,R15),R1
    00000A5A E300                   MOV         #0,R3
    00000A5C 00FE                   MOV.L       @(R0,R15),R0
    00000A5E 0134                   MOV.B       R3,@(R0,R1)
            QR.c   245                    image[i][6] = 0;
    00000A60 52F7                   MOV.L       @(28,R15),R2
    00000A62 63F3                   MOV         R15,R3
    00000A64 4208                   SHLL2       R2
    00000A66 7344                   ADD         #68,R3
    00000A68 323C                   ADD         R3,R2
    00000A6A E000                   MOV         #0,R0
    00000A6C 6122                   MOV.L       @R2,R1
    00000A6E 8016                   MOV.B       R0,@(6,R1)
    00000A70 52F7                   MOV.L       @(28,R15),R2
    00000A72 7202                   ADD         #2,R2
    00000A74 1F27                   MOV.L       R2,@(28,R15)
    00000A76              L555:                             
    00000A76 9089                   MOV.W       L673,R0    ; H'0144
    00000A78 52F7                   MOV.L       @(28,R15),R2
    00000A7A 03FE                   MOV.L       @(R0,R15),R3
    00000A7C 73F8                   ADD         #-8,R3
    00000A7E 3232                   CMP/HS      R3,R2
    00000A80 8BE9                   BF          L556
            QR.c   246            }
            QR.c   247            //add the "dark module"
            QR.c   248            image[(qr_version * 4)+13][8] = 0;
    00000A82 63F3                   MOV         R15,R3
    00000A84 9083                   MOV.W       L673+2,R0  ; H'039C
    00000A86 7344                   ADD         #68,R3
    00000A88 01FE                   MOV.L       @(R0,R15),R1
    00000A8A E000                   MOV         #0,R0
    00000A8C 4108                   SHLL2       R1




SH SERIES C/C++ Compiler (Ver. 6.0C)                                                                 03-Dec-2017 19:45:28  PAGE   31


SCT OFFSET   CODE       C LABEL     INSTRUCTION OPERAND    COMMENT

    00000A8E 4108                   SHLL2       R1
    00000A90 313C                   ADD         R3,R1
    00000A92 521D                   MOV.L       @(52,R1),R2
    00000A94 8028                   MOV.B       R0,@(8,R2)
            QR.c   249            mask_number = 1;//printf("INFO: using mask %d\n", mask_number);
    00000A96 E201                   MOV         #1,R2
    00000A98 E023                   MOV         #35,R0
    00000A9A 0F24                   MOV.B       R2,@(R0,R15)
            QR.c   250            //apply mask format info
            QR.c   251            {
            QR.c   252                    int16_t mask = mask_info[mask_number];
    00000A9C E023                   MOV         #35,R0
    00000A9E 01FC                   MOV.B       @(R0,R15),R1
    00000AA0 D03B                   MOV.L       L673+4,R0  ; _mask_info
    00000AA2 611C                   EXTU.B      R1,R1
    00000AA4 4108                   SHLL2       R1
    00000AA6 021E                   MOV.L       @(R0,R1),R2
    00000AA8 1F23                   MOV.L       R2,@(12,R15)
            QR.c   253                    int16_t skip = 0;
    00000AAA E100                   MOV         #0,R1
    00000AAC 1F12                   MOV.L       R1,@(8,R15)
            QR.c   254                    for (i=0; i < 8; i++) {
    00000AAE 1F17                   MOV.L       R1,@(28,R15)
    00000AB0 A022                   BRA         L557
    00000AB2 0009                   NOP
    00000AB4              L558:                             
            QR.c   255                            if (i == 6) skip=1;
    00000AB4 50F7                   MOV.L       @(28,R15),R0
    00000AB6 8806                   CMP/EQ      #6,R0
    00000AB8 8B01                   BF          L559
    00000ABA E201                   MOV         #1,R2
    00000ABC 1F22                   MOV.L       R2,@(8,R15)
    00000ABE              L559:                             
            QR.c   256                            if ((mask & 1) > 0) {
    00000ABE 50F3                   MOV.L       @(12,R15),R0
    00000AC0 C901                   AND         #1,R0
    00000AC2 4015                   CMP/PL      R0
    00000AC4 8B12                   BF          L560
            QR.c   257                                    image[8][max_pixels-i-1] = 0;
    00000AC6 9061                   MOV.W       L673,R0    ; H'0144
    00000AC8 51F7                   MOV.L       @(28,R15),R1
    00000ACA 03FE                   MOV.L       @(R0,R15),R3
    00000ACC E064                   MOV         #100,R0
    00000ACE 02FE                   MOV.L       @(R0,R15),R2
    00000AD0 323C                   ADD         R3,R2
    00000AD2 3218                   SUB         R1,R2
    00000AD4 E300                   MOV         #0,R3
            QR.c   258                                    image[i+skip][8] = 0;
    00000AD6 61F3                   MOV         R15,R1
    00000AD8 2234                   MOV.B       R3,@-R2
    00000ADA E000                   MOV         #0,R0
    00000ADC 53F7                   MOV.L       @(28,R15),R3
    00000ADE 7144                   ADD         #68,R1
    00000AE0 52F2                   MOV.L       @(8,R15),R2
    00000AE2 323C                   ADD         R3,R2
    00000AE4 4208                   SHLL2       R2
    00000AE6 321C                   ADD         R1,R2




SH SERIES C/C++ Compiler (Ver. 6.0C)                                                                 03-Dec-2017 19:45:28  PAGE   32


SCT OFFSET   CODE       C LABEL     INSTRUCTION OPERAND    COMMENT

    00000AE8 6222                   MOV.L       @R2,R2
    00000AEA 8028                   MOV.B       R0,@(8,R2)
    00000AEC              L560:                             
            QR.c   259                            }
            QR.c   260                            mask = mask >> 1;
    00000AEC 53F3                   MOV.L       @(12,R15),R3
    00000AEE 4321                   SHAR        R3
    00000AF0 1F33                   MOV.L       R3,@(12,R15)
    00000AF2 52F7                   MOV.L       @(28,R15),R2
    00000AF4 7201                   ADD         #1,R2
    00000AF6 1F27                   MOV.L       R2,@(28,R15)
    00000AF8              L557:                             
    00000AF8 51F7                   MOV.L       @(28,R15),R1
    00000AFA E308                   MOV         #8,R3
    00000AFC 3132                   CMP/HS      R3,R1
    00000AFE 8BD9                   BF          L558
            QR.c   261                    }
            QR.c   262                    skip = 0;
    00000B00 E300                   MOV         #0,R3
            QR.c   263                    for (i=0; i < 7; i++) {
    00000B02 6233                   MOV         R3,R2
    00000B04 1F32                   MOV.L       R3,@(8,R15)
    00000B06 A021                   BRA         L648
    00000B08 0009                   NOP
    00000B0A              L562:                             
            QR.c   264                            if (i == 1) skip= -1;
    00000B0A 50F7                   MOV.L       @(28,R15),R0
    00000B0C 8801                   CMP/EQ      #1,R0
    00000B0E 8B01                   BF          L563
    00000B10 E2FF                   MOV         #-1,R2
    00000B12 1F22                   MOV.L       R2,@(8,R15)
    00000B14              L563:                             
            QR.c   265                            if ((mask & 1) > 0) {
    00000B14 50F3                   MOV.L       @(12,R15),R0
    00000B16 C901                   AND         #1,R0
    00000B18 4015                   CMP/PL      R0
    00000B1A 8B12                   BF          L564
            QR.c   266                                    image[max_pixels-7+i][8] = 0;
    00000B1C 9036                   MOV.W       L673,R0    ; H'0144
    00000B1E 61F3                   MOV         R15,R1
    00000B20 53F7                   MOV.L       @(28,R15),R3
    00000B22 7144                   ADD         #68,R1
    00000B24 02FE                   MOV.L       @(R0,R15),R2
    00000B26 E000                   MOV         #0,R0
    00000B28 72F9                   ADD         #-7,R2
    00000B2A 323C                   ADD         R3,R2
    00000B2C 4208                   SHLL2       R2
    00000B2E 321C                   ADD         R1,R2
    00000B30 6222                   MOV.L       @R2,R2
    00000B32 8028                   MOV.B       R0,@(8,R2)
            QR.c   267                                    image[8][7-i+skip] = 0;
    00000B34 53F2                   MOV.L       @(8,R15),R3
    00000B36 E000                   MOV         #0,R0
    00000B38 5218                   MOV.L       @(32,R1),R2
    00000B3A 323C                   ADD         R3,R2
    00000B3C 53F7                   MOV.L       @(28,R15),R3
    00000B3E 3238                   SUB         R3,R2




SH SERIES C/C++ Compiler (Ver. 6.0C)                                                                 03-Dec-2017 19:45:28  PAGE   33


SCT OFFSET   CODE       C LABEL     INSTRUCTION OPERAND    COMMENT

    00000B40 8027                   MOV.B       R0,@(7,R2)
    00000B42              L564:                             
            QR.c   268                            }
            QR.c   269                            mask = mask >> 1;
    00000B42 53F3                   MOV.L       @(12,R15),R3
    00000B44 4321                   SHAR        R3
    00000B46 1F33                   MOV.L       R3,@(12,R15)
    00000B48 52F7                   MOV.L       @(28,R15),R2
    00000B4A 7201                   ADD         #1,R2
    00000B4C              L648:                             
    00000B4C 1F27                   MOV.L       R2,@(28,R15)
    00000B4E E307                   MOV         #7,R3
    00000B50 6123                   MOV         R2,R1
    00000B52 3132                   CMP/HS      R3,R1
    00000B54 8BD9                   BF          L562
            QR.c   270                    }
            QR.c   271            }
            QR.c   272            //apply version info (for QR Versions 7+)
            QR.c   273            if (qr_version > 5) { //remember qr_version==6 is really V7
    00000B56 E305                   MOV         #5,R3
    00000B58 9019                   MOV.W       L673+2,R0  ; H'039C
    00000B5A 02FE                   MOV.L       @(R0,R15),R2
    00000B5C 3237                   CMP/GT      R3,R2
    00000B5E 8B59                   BF          L565
            QR.c   274                    int16_t offset = (qr_version-6)*3;
    00000B60 9015                   MOV.W       L673+2,R0  ; H'039C
    00000B62 02FE                   MOV.L       @(R0,R15),R2
    00000B64 72FA                   ADD         #-6,R2
    00000B66 6123                   MOV         R2,R1
    00000B68 4200                   SHLL        R2
    00000B6A 321C                   ADD         R1,R2
    00000B6C 1F23                   MOV.L       R2,@(12,R15)
            QR.c   275                    for (i=0; i < 3; i++) {
    00000B6E E100                   MOV         #0,R1
    00000B70 1F17                   MOV.L       R1,@(28,R15)
    00000B72 A04B                   BRA         L566
    00000B74 0009                   NOP
    00000B76              L567:                             
            QR.c   276                            unsigned char ver = version_info[offset+i];
    00000B76 D307                   MOV.L       L673+8,R3  ; _version_info
    00000B78 50F3                   MOV.L       @(12,R15),R0
    00000B7A 303C                   ADD         R3,R0
    00000B7C 52F7                   MOV.L       @(28,R15),R2
    00000B7E 002C                   MOV.B       @(R0,R2),R0
    00000B80 80FB                   MOV.B       R0,@(11,R15)
            QR.c   277                            for (j=0; j < 2; j++) {
    00000B82 A03B                   BRA         L649
    00000B84 E300                   MOV         #0,R3
    00000B86              L569:                             
            QR.c   278                    int k;
            QR.c   279                                    for (k=0; k < 3; k++) {
    00000B86 E200                   MOV         #0,R2
    00000B88 A032                   BRA         L570
    00000B8A 1F21                   MOV.L       R2,@(4,R15)
    00000B8C              L673:                             
    00000B8C 0144                   .DATA.W     H'0144
    00000B8E 039C                   .DATA.W     H'039C




SH SERIES C/C++ Compiler (Ver. 6.0C)                                                                 03-Dec-2017 19:45:28  PAGE   34


SCT OFFSET   CODE       C LABEL     INSTRUCTION OPERAND    COMMENT

    00000B90 <00000000>             .DATA.L     _mask_info
    00000B94 <00000000>             .DATA.L     _version_info
    00000B98              L571:                             
            QR.c   280                                            if ((ver & 1) > 0) {
    00000B98 84FB                   MOV.B       @(11,R15),R0
    00000B9A 600C                   EXTU.B      R0,R0
    00000B9C C901                   AND         #1,R0
    00000B9E 4015                   CMP/PL      R0
    00000BA0 8B1F                   BF          L572
            QR.c   281                                                    image[0+j+(i*2)][max_pixels-11+k] = 0;
    00000BA2 62F3                   MOV         R15,R2
    00000BA4 51F1                   MOV.L       @(4,R15),R1
    00000BA6 7244                   ADD         #68,R2
    00000BA8 50F7                   MOV.L       @(28,R15),R0
    00000BAA 4000                   SHLL        R0
    00000BAC 53F6                   MOV.L       @(24,R15),R3
    00000BAE 303C                   ADD         R3,R0
    00000BB0 937D                   MOV.W       L674,R3    ; H'0144
    00000BB2 4008                   SHLL2       R0
    00000BB4 002E                   MOV.L       @(R0,R2),R0
    00000BB6 33FC                   ADD         R15,R3
    00000BB8 6332                   MOV.L       @R3,R3
    00000BBA E200                   MOV         #0,R2
    00000BBC 331C                   ADD         R1,R3
    00000BBE 73F5                   ADD         #-11,R3
    00000BC0 0324                   MOV.B       R2,@(R0,R3)
            QR.c   282                                                    image[max_pixels-11+k][0+j+(i*2)] = 0;
    00000BC2 62F3                   MOV         R15,R2
    00000BC4 53F1                   MOV.L       @(4,R15),R3
    00000BC6 7244                   ADD         #68,R2
    00000BC8 9071                   MOV.W       L674,R0    ; H'0144
    00000BCA 01FE                   MOV.L       @(R0,R15),R1
    00000BCC 50F7                   MOV.L       @(28,R15),R0
    00000BCE 313C                   ADD         R3,R1
    00000BD0 71F5                   ADD         #-11,R1
    00000BD2 4108                   SHLL2       R1
    00000BD4 312C                   ADD         R2,R1
    00000BD6 4000                   SHLL        R0
    00000BD8 6112                   MOV.L       @R1,R1
    00000BDA E300                   MOV         #0,R3
    00000BDC 301C                   ADD         R1,R0
    00000BDE 51F6                   MOV.L       @(24,R15),R1
    00000BE0 0134                   MOV.B       R3,@(R0,R1)
    00000BE2              L572:                             
            QR.c   283                                            }
            QR.c   284                                            ver = ver >> 1;
    00000BE2 84FB                   MOV.B       @(11,R15),R0
    00000BE4 600C                   EXTU.B      R0,R0
    00000BE6 4001                   SHLR        R0
    00000BE8 80FB                   MOV.B       R0,@(11,R15)
    00000BEA 53F1                   MOV.L       @(4,R15),R3
    00000BEC 7301                   ADD         #1,R3
    00000BEE 1F31                   MOV.L       R3,@(4,R15)
    00000BF0              L570:                             
    00000BF0 51F1                   MOV.L       @(4,R15),R1
    00000BF2 E203                   MOV         #3,R2
    00000BF4 3123                   CMP/GE      R2,R1




SH SERIES C/C++ Compiler (Ver. 6.0C)                                                                 03-Dec-2017 19:45:28  PAGE   35


SCT OFFSET   CODE       C LABEL     INSTRUCTION OPERAND    COMMENT

    00000BF6 8BCF                   BF          L571
    00000BF8 53F6                   MOV.L       @(24,R15),R3
    00000BFA 7301                   ADD         #1,R3
    00000BFC              L649:                             
    00000BFC 1F36                   MOV.L       R3,@(24,R15)
    00000BFE E202                   MOV         #2,R2
    00000C00 6133                   MOV         R3,R1
    00000C02 3122                   CMP/HS      R2,R1
    00000C04 8BBF                   BF          L569
    00000C06 53F7                   MOV.L       @(28,R15),R3
    00000C08 7301                   ADD         #1,R3
    00000C0A 1F37                   MOV.L       R3,@(28,R15)
    00000C0C              L566:                             
    00000C0C 51F7                   MOV.L       @(28,R15),R1
    00000C0E E203                   MOV         #3,R2
    00000C10 3122                   CMP/HS      R2,R1
    00000C12 8BB0                   BF          L567
    00000C14              L565:                             
            QR.c   285                                    }
            QR.c   286                            }
            QR.c   287                    }
            QR.c   288            }
            QR.c   289            
            QR.c   290            y = max_pixels-1;
    00000C14 904B                   MOV.W       L674,R0    ; H'0144
            QR.c   291            x = max_pixels-1;
            QR.c   292            dir = -1;
    00000C16 E1FF                   MOV         #-1,R1
    00000C18 03FE                   MOV.L       @(R0,R15),R3
    00000C1A 73FF                   ADD         #-1,R3
    00000C1C 1F3F                   MOV.L       R3,@(60,R15)
    00000C1E 9046                   MOV.W       L674,R0    ; H'0144
    00000C20 02FE                   MOV.L       @(R0,R15),R2
    00000C22 72FF                   ADD         #-1,R2
    00000C24 1F2E                   MOV.L       R2,@(56,R15)
            QR.c   293            primary_bits = output_size * 8;
            QR.c   294            remainder_bits = message_parameters[5];
            QR.c   295            working_byte = 0;
            QR.c   296            interleaved_index = -1;
    00000C26 E2FF                   MOV         #-1,R2
    00000C28 1F1D                   MOV.L       R1,@(52,R15)
    00000C2A 9041                   MOV.W       L674+2,R0  ; H'0148
    00000C2C 01FE                   MOV.L       @(R0,R15),R1
    00000C2E 4108                   SHLL2       R1
    00000C30 903F                   MOV.W       L674+4,R0  ; H'0398
    00000C32 4100                   SHLL        R1
    00000C34 1F1C                   MOV.L       R1,@(48,R15)
    00000C36 E100                   MOV         #0,R1
    00000C38 03FE                   MOV.L       @(R0,R15),R3
    00000C3A 8435                   MOV.B       @(5,R3),R0
    00000C3C 600C                   EXTU.B      R0,R0
    00000C3E 1F0B                   MOV.L       R0,@(44,R15)
    00000C40 E02B                   MOV         #43,R0
    00000C42 0F14                   MOV.B       R1,@(R0,R15)
    00000C44 1F29                   MOV.L       R2,@(36,R15)
            QR.c   297            for (i=0; i < primary_bits + remainder_bits; i++) {
    00000C46 A1D2                   BRA         L573




SH SERIES C/C++ Compiler (Ver. 6.0C)                                                                 03-Dec-2017 19:45:28  PAGE   36


SCT OFFSET   CODE       C LABEL     INSTRUCTION OPERAND    COMMENT

    00000C48 1F17                   MOV.L       R1,@(28,R15)
    00000C4A              L574:                             
            QR.c   298                    if (image[y][x] == 0) { // check for alignment marker hit
    00000C4A 63F3                   MOV         R15,R3
    00000C4C 52FE                   MOV.L       @(56,R15),R2
    00000C4E 7344                   ADD         #68,R3
    00000C50 50FF                   MOV.L       @(60,R15),R0
    00000C52 4008                   SHLL2       R0
    00000C54 003E                   MOV.L       @(R0,R3),R0
    00000C56 022C                   MOV.B       @(R0,R2),R2
    00000C58 622C                   EXTU.B      R2,R2
    00000C5A 2228                   TST         R2,R2
    00000C5C 8B66                   BF          L575
            QR.c   299                            if (image[y][x-1] == 0) //hit alignment marker head=-on, skip over it
    00000C5E 50FF                   MOV.L       @(60,R15),R0
    00000C60 52FE                   MOV.L       @(56,R15),R2
    00000C62 4008                   SHLL2       R0
    00000C64 003E                   MOV.L       @(R0,R3),R0
    00000C66 72FF                   ADD         #-1,R2
    00000C68 002C                   MOV.B       @(R0,R2),R0
    00000C6A 600C                   EXTU.B      R0,R0
    00000C6C 2008                   TST         R0,R0
    00000C6E 8B07                   BF          L576
            QR.c   300                                    y = y + dir*5;
    00000C70 51FD                   MOV.L       @(52,R15),R1
    00000C72 6213                   MOV         R1,R2
    00000C74 4108                   SHLL2       R1
    00000C76 312C                   ADD         R2,R1
    00000C78 52FF                   MOV.L       @(60,R15),R2
    00000C7A 312C                   ADD         R2,R1
    00000C7C A056                   BRA         L575
    00000C7E 1F1F                   MOV.L       R1,@(60,R15)
    00000C80              L576:                             
            QR.c   301                            else {  // hit left-hand edge of alignment marker, handle special case
            QR.c   302                                    x = x - 1;
    00000C80 52FE                   MOV.L       @(56,R15),R2
            QR.c   303                                    for (j=0; j < 5; j++) {
    00000C82 E100                   MOV         #0,R1
    00000C84 72FF                   ADD         #-1,R2
    00000C86 1F2E                   MOV.L       R2,@(56,R15)
    00000C88 1F16                   MOV.L       R1,@(24,R15)
    00000C8A A048                   BRA         L578
    00000C8C 0009                   NOP
    00000C8E              L579:                             
            QR.c   304                                            if (y != 6) { //skip over horitzonal timing line
    00000C8E 50FF                   MOV.L       @(60,R15),R0
    00000C90 8806                   CMP/EQ      #6,R0
    00000C92 893D                   BT          L580
            QR.c   305                                                    if (i % 8 == 0) { working_byte = interleaved_output[++inte
                         +rleaved_index]; } else { working_byte = working_byte << 1; }
    00000C94 50F7                   MOV.L       @(28,R15),R0
    00000C96 C807                   TST         #7,R0
    00000C98 8B0D                   BF          L581
    00000C9A E02B                   MOV         #43,R0
    00000C9C 52F9                   MOV.L       @(36,R15),R2
    00000C9E 7201                   ADD         #1,R2
    00000CA0 1F29                   MOV.L       R2,@(36,R15)




SH SERIES C/C++ Compiler (Ver. 6.0C)                                                                 03-Dec-2017 19:45:28  PAGE   37


SCT OFFSET   CODE       C LABEL     INSTRUCTION OPERAND    COMMENT

    00000CA2 9307                   MOV.W       L674+6,R3  ; H'0158
    00000CA4 33FC                   ADD         R15,R3
    00000CA6 323C                   ADD         R3,R2
    00000CA8 6120                   MOV.B       @R2,R1
    00000CAA A00A                   BRA         L582
    00000CAC 0F14                   MOV.B       R1,@(R0,R15)
    00000CAE              L674:                             
    00000CAE 0144                   .DATA.W     H'0144
    00000CB0 0148                   .DATA.W     H'0148
    00000CB2 0398                   .DATA.W     H'0398
    00000CB4 0158                   .DATA.W     H'0158
    00000CB6              L581:                             
    00000CB6 E02B                   MOV         #43,R0
    00000CB8 03FC                   MOV.B       @(R0,R15),R3
    00000CBA E02B                   MOV         #43,R0
    00000CBC 633C                   EXTU.B      R3,R3
    00000CBE 4300                   SHLL        R3
    00000CC0 0F34                   MOV.B       R3,@(R0,R15)
    00000CC2              L582:                             
            QR.c   306                                                    if ((working_byte & 128) > 0) image[y][x] = 0;
    00000CC2 E02B                   MOV         #43,R0
    00000CC4 00FC                   MOV.B       @(R0,R15),R0
    00000CC6 600C                   EXTU.B      R0,R0
    00000CC8 C980                   AND         #128,R0
    00000CCA 4015                   CMP/PL      R0
    00000CCC 8B07                   BF          L583
    00000CCE 63F3                   MOV         R15,R3
    00000CD0 52FE                   MOV.L       @(56,R15),R2
    00000CD2 E100                   MOV         #0,R1
    00000CD4 50FF                   MOV.L       @(60,R15),R0
    00000CD6 7344                   ADD         #68,R3
    00000CD8 4008                   SHLL2       R0
    00000CDA 003E                   MOV.L       @(R0,R3),R0
    00000CDC 0214                   MOV.B       R1,@(R0,R2)
    00000CDE              L583:                             
            QR.c   307                                                    if (is_mask_applicable(y, x, mask_number)) image[y][x]=~im
                         +age[y][x];
    00000CDE E023                   MOV         #35,R0
    00000CE0 55FE                   MOV.L       @(56,R15),R5
    00000CE2 06FC                   MOV.B       @(R0,R15),R6
    00000CE4 B98C                   BSR         _is_mask_applicable
    00000CE6 54FF                   MOV.L       @(60,R15),R4
    00000CE8 2008                   TST         R0,R0
    00000CEA 890E                   BT          L584
    00000CEC 50FF                   MOV.L       @(60,R15),R0
    00000CEE 63F3                   MOV         R15,R3
    00000CF0 52FE                   MOV.L       @(56,R15),R2
    00000CF2 4008                   SHLL2       R0
    00000CF4 51FF                   MOV.L       @(60,R15),R1
    00000CF6 7344                   ADD         #68,R3
    00000CF8 003E                   MOV.L       @(R0,R3),R0
    00000CFA 4108                   SHLL2       R1
    00000CFC 320C                   ADD         R0,R2
    00000CFE 313C                   ADD         R3,R1
    00000D00 53FE                   MOV.L       @(56,R15),R3
    00000D02 6012                   MOV.L       @R1,R0
    00000D04 033C                   MOV.B       @(R0,R3),R3




SH SERIES C/C++ Compiler (Ver. 6.0C)                                                                 03-Dec-2017 19:45:28  PAGE   38


SCT OFFSET   CODE       C LABEL     INSTRUCTION OPERAND    COMMENT

    00000D06 6337                   NOT         R3,R3
    00000D08 2230                   MOV.B       R3,@R2
    00000D0A              L584:                             
            QR.c   308                                                    i++;
    00000D0A 51F7                   MOV.L       @(28,R15),R1
    00000D0C 7101                   ADD         #1,R1
    00000D0E 1F17                   MOV.L       R1,@(28,R15)
    00000D10              L580:                             
            QR.c   309                                            }
            QR.c   310                                            y = y + dir;
    00000D10 53FD                   MOV.L       @(52,R15),R3
    00000D12 52FF                   MOV.L       @(60,R15),R2
    00000D14 323C                   ADD         R3,R2
    00000D16 1F2F                   MOV.L       R2,@(60,R15)
    00000D18 51F6                   MOV.L       @(24,R15),R1
    00000D1A 7101                   ADD         #1,R1
    00000D1C 1F16                   MOV.L       R1,@(24,R15)
    00000D1E              L578:                             
    00000D1E E305                   MOV         #5,R3
    00000D20 52F6                   MOV.L       @(24,R15),R2
    00000D22 3232                   CMP/HS      R3,R2
    00000D24 8BB3                   BF          L579
            QR.c   311                                    }
            QR.c   312                                    x = x + 1;
    00000D26 53FE                   MOV.L       @(56,R15),R3
    00000D28 7301                   ADD         #1,R3
    00000D2A 1F3E                   MOV.L       R3,@(56,R15)
    00000D2C              L575:                             
            QR.c   313                            }
            QR.c   314                    }
            QR.c   315                    if (i < primary_bits) {
    00000D2C 52FC                   MOV.L       @(48,R15),R2
    00000D2E 51F7                   MOV.L       @(28,R15),R1
    00000D30 3122                   CMP/HS      R2,R1
    00000D32 8920                   BT          L585
            QR.c   316                            if (i % 8 == 0) { working_byte = interleaved_output[++interleaved_index]; } else {
                         + working_byte = working_byte << 1; }
    00000D34 50F7                   MOV.L       @(28,R15),R0
    00000D36 C807                   TST         #7,R0
    00000D38 8B09                   BF          L586
    00000D3A E02B                   MOV         #43,R0
    00000D3C 51F9                   MOV.L       @(36,R15),R1
    00000D3E 7101                   ADD         #1,R1
    00000D40 1F19                   MOV.L       R1,@(36,R15)
    00000D42 9346                   MOV.W       L675,R3    ; H'0158
    00000D44 33FC                   ADD         R15,R3
    00000D46 313C                   ADD         R3,R1
    00000D48 6210                   MOV.B       @R1,R2
    00000D4A A006                   BRA         L587
    00000D4C 0F24                   MOV.B       R2,@(R0,R15)
    00000D4E              L586:                             
    00000D4E E02B                   MOV         #43,R0
    00000D50 03FC                   MOV.B       @(R0,R15),R3
    00000D52 E02B                   MOV         #43,R0
    00000D54 633C                   EXTU.B      R3,R3
    00000D56 4300                   SHLL        R3
    00000D58 0F34                   MOV.B       R3,@(R0,R15)




SH SERIES C/C++ Compiler (Ver. 6.0C)                                                                 03-Dec-2017 19:45:28  PAGE   39


SCT OFFSET   CODE       C LABEL     INSTRUCTION OPERAND    COMMENT

    00000D5A              L587:                             
            QR.c   317                            if ((working_byte & 128) > 0) image[y][x] = 0;
    00000D5A E02B                   MOV         #43,R0
    00000D5C 00FC                   MOV.B       @(R0,R15),R0
    00000D5E 600C                   EXTU.B      R0,R0
    00000D60 C980                   AND         #128,R0
    00000D62 4015                   CMP/PL      R0
    00000D64 8B07                   BF          L585
    00000D66 63F3                   MOV         R15,R3
    00000D68 52FE                   MOV.L       @(56,R15),R2
    00000D6A E100                   MOV         #0,R1
    00000D6C 50FF                   MOV.L       @(60,R15),R0
    00000D6E 7344                   ADD         #68,R3
    00000D70 4008                   SHLL2       R0
    00000D72 003E                   MOV.L       @(R0,R3),R0
    00000D74 0214                   MOV.B       R1,@(R0,R2)
    00000D76              L585:                             
            QR.c   318                    }
            QR.c   319                    if (is_mask_applicable(y, x, mask_number)) image[y][x]=~image[y][x]; // handle masking for
                         + primary or remainder bit
    00000D76 E023                   MOV         #35,R0
    00000D78 55FE                   MOV.L       @(56,R15),R5
    00000D7A 06FC                   MOV.B       @(R0,R15),R6
    00000D7C B940                   BSR         _is_mask_applicable
    00000D7E 54FF                   MOV.L       @(60,R15),R4
    00000D80 2008                   TST         R0,R0
    00000D82 890E                   BT          L589
    00000D84 50FF                   MOV.L       @(60,R15),R0
    00000D86 63F3                   MOV         R15,R3
    00000D88 52FE                   MOV.L       @(56,R15),R2
    00000D8A 4008                   SHLL2       R0
    00000D8C 51FF                   MOV.L       @(60,R15),R1
    00000D8E 7344                   ADD         #68,R3
    00000D90 003E                   MOV.L       @(R0,R3),R0
    00000D92 4108                   SHLL2       R1
    00000D94 320C                   ADD         R0,R2
    00000D96 313C                   ADD         R3,R1
    00000D98 53FE                   MOV.L       @(56,R15),R3
    00000D9A 6012                   MOV.L       @R1,R0
    00000D9C 033C                   MOV.B       @(R0,R3),R3
    00000D9E 6337                   NOT         R3,R3
    00000DA0 2230                   MOV.B       R3,@R2
    00000DA2              L589:                             
            QR.c   320                    i++;
    00000DA2 51F7                   MOV.L       @(28,R15),R1
    00000DA4 7101                   ADD         #1,R1
    00000DA6 1F17                   MOV.L       R1,@(28,R15)
            QR.c   321                    x = x - 1;
    00000DA8 53FE                   MOV.L       @(56,R15),R3
    00000DAA 73FF                   ADD         #-1,R3
    00000DAC 1F3E                   MOV.L       R3,@(56,R15)
            QR.c   322                    if (i < primary_bits) {
    00000DAE 52FC                   MOV.L       @(48,R15),R2
    00000DB0 3122                   CMP/HS      R2,R1
    00000DB2 8923                   BT          L590
            QR.c   323                            if (i % 8 == 0) { working_byte = interleaved_output[++interleaved_index]; } else {
                         + working_byte = working_byte << 1; }




SH SERIES C/C++ Compiler (Ver. 6.0C)                                                                 03-Dec-2017 19:45:28  PAGE   40


SCT OFFSET   CODE       C LABEL     INSTRUCTION OPERAND    COMMENT

    00000DB4 E207                   MOV         #7,R2
    00000DB6 2128                   TST         R2,R1
    00000DB8 8B0C                   BF          L591
    00000DBA 52F9                   MOV.L       @(36,R15),R2
    00000DBC 9109                   MOV.W       L675,R1    ; H'0158
    00000DBE 7201                   ADD         #1,R2
    00000DC0 1F29                   MOV.L       R2,@(36,R15)
    00000DC2 31FC                   ADD         R15,R1
    00000DC4 321C                   ADD         R1,R2
    00000DC6 6020                   MOV.B       @R2,R0
    00000DC8 62F3                   MOV         R15,R2
    00000DCA 722B                   ADD         #43,R2
    00000DCC 2200                   MOV.B       R0,@R2
    00000DCE A007                   BRA         L592
    00000DD0 0009                   NOP
    00000DD2              L675:                             
    00000DD2 0158                   .DATA.W     H'0158
    00000DD4              L591:                             
    00000DD4 E02B                   MOV         #43,R0
    00000DD6 01FC                   MOV.B       @(R0,R15),R1
    00000DD8 611C                   EXTU.B      R1,R1
    00000DDA 4100                   SHLL        R1
    00000DDC E02B                   MOV         #43,R0
    00000DDE 0F14                   MOV.B       R1,@(R0,R15)
    00000DE0              L592:                             
            QR.c   324                            if ((working_byte & 128) > 0) image[y][x] = 0;
    00000DE0 E02B                   MOV         #43,R0
    00000DE2 00FC                   MOV.B       @(R0,R15),R0
    00000DE4 600C                   EXTU.B      R0,R0
    00000DE6 C980                   AND         #128,R0
    00000DE8 4015                   CMP/PL      R0
    00000DEA 8B07                   BF          L590
    00000DEC 50FF                   MOV.L       @(60,R15),R0
    00000DEE 63F3                   MOV         R15,R3
    00000DF0 52FE                   MOV.L       @(56,R15),R2
    00000DF2 E100                   MOV         #0,R1
    00000DF4 4008                   SHLL2       R0
    00000DF6 7344                   ADD         #68,R3
    00000DF8 003E                   MOV.L       @(R0,R3),R0
    00000DFA 0214                   MOV.B       R1,@(R0,R2)
    00000DFC              L590:                             
            QR.c   325                    }
            QR.c   326                    if (is_mask_applicable(y, x, mask_number)) image[y][x]=~image[y][x];
    00000DFC 55FE                   MOV.L       @(56,R15),R5
    00000DFE E023                   MOV         #35,R0
    00000E00 06FC                   MOV.B       @(R0,R15),R6
    00000E02 B8FD                   BSR         _is_mask_applicable
    00000E04 54FF                   MOV.L       @(60,R15),R4
    00000E06 2008                   TST         R0,R0
    00000E08 890E                   BT          L594
    00000E0A 63F3                   MOV         R15,R3
    00000E0C 52FE                   MOV.L       @(56,R15),R2
    00000E0E 7344                   ADD         #68,R3
    00000E10 51FF                   MOV.L       @(60,R15),R1
    00000E12 50FF                   MOV.L       @(60,R15),R0
    00000E14 4008                   SHLL2       R0
    00000E16 4108                   SHLL2       R1




SH SERIES C/C++ Compiler (Ver. 6.0C)                                                                 03-Dec-2017 19:45:28  PAGE   41


SCT OFFSET   CODE       C LABEL     INSTRUCTION OPERAND    COMMENT

    00000E18 003E                   MOV.L       @(R0,R3),R0
    00000E1A 313C                   ADD         R3,R1
    00000E1C 53FE                   MOV.L       @(56,R15),R3
    00000E1E 320C                   ADD         R0,R2
    00000E20 6012                   MOV.L       @R1,R0
    00000E22 033C                   MOV.B       @(R0,R3),R3
    00000E24 6337                   NOT         R3,R3
    00000E26 2230                   MOV.B       R3,@R2
    00000E28              L594:                             
            QR.c   327                    y = y + dir;
    00000E28 53FD                   MOV.L       @(52,R15),R3
    00000E2A 52FF                   MOV.L       @(60,R15),R2
    00000E2C 323C                   ADD         R3,R2
            QR.c   328                    x = x + 1;
            QR.c   329                    if (((x < 9) && (y == 8)) || ((x > max_pixels-8) && (y == 8)) || (y < 0)) { // hit top-lef
                         +t or top-right finder patterns
    00000E2E E309                   MOV         #9,R3
    00000E30 1F2F                   MOV.L       R2,@(60,R15)
    00000E32 51FE                   MOV.L       @(56,R15),R1
    00000E34 7101                   ADD         #1,R1
    00000E36 3133                   CMP/GE      R3,R1
    00000E38 1F1E                   MOV.L       R1,@(56,R15)
    00000E3A 8902                   BT          L597
    00000E3C 6023                   MOV         R2,R0
    00000E3E 8808                   CMP/EQ      #8,R0
    00000E40 890B                   BT          L596
    00000E42              L597:                             
    00000E42 903A                   MOV.W       L676,R0    ; H'0144
    00000E44 53FE                   MOV.L       @(56,R15),R3
    00000E46 02FE                   MOV.L       @(R0,R15),R2
    00000E48 72F8                   ADD         #-8,R2
    00000E4A 3327                   CMP/GT      R2,R3
    00000E4C 8B02                   BF          L598
    00000E4E 50FF                   MOV.L       @(60,R15),R0
    00000E50 8808                   CMP/EQ      #8,R0
    00000E52 8902                   BT          L596
    00000E54              L598:                             
    00000E54 52FF                   MOV.L       @(60,R15),R2
    00000E56 4211                   CMP/PZ      R2
    00000E58 8907                   BT          L595
    00000E5A              L596:                             
            QR.c   330                            dir = +1;
    00000E5A E101                   MOV         #1,R1
    00000E5C 1F1D                   MOV.L       R1,@(52,R15)
            QR.c   331                            y = y + 1;
    00000E5E 53FF                   MOV.L       @(60,R15),R3
    00000E60 7301                   ADD         #1,R3
    00000E62 1F3F                   MOV.L       R3,@(60,R15)
            QR.c   332                            x = x - 2;
    00000E64 52FE                   MOV.L       @(56,R15),R2
    00000E66 A095                   BRA         L653
    00000E68 72FE                   ADD         #-2,R2
    00000E6A              L595:                             
            QR.c   333                    } else if ((qr_version > 5) && (x == max_pixels-9) && (y==6)) { //skip over top 3x6 versio
                         +n info block for large QR Version>=7
    00000E6A E305                   MOV         #5,R3
    00000E6C 9026                   MOV.W       L676+2,R0  ; H'039C




SH SERIES C/C++ Compiler (Ver. 6.0C)                                                                 03-Dec-2017 19:45:28  PAGE   42


SCT OFFSET   CODE       C LABEL     INSTRUCTION OPERAND    COMMENT

    00000E6E 01FE                   MOV.L       @(R0,R15),R1
    00000E70 3137                   CMP/GT      R3,R1
    00000E72 8B64                   BF          L600
    00000E74 9021                   MOV.W       L676,R0    ; H'0144
    00000E76 02FE                   MOV.L       @(R0,R15),R2
    00000E78 51FE                   MOV.L       @(56,R15),R1
    00000E7A 72F7                   ADD         #-9,R2
    00000E7C 3120                   CMP/EQ      R2,R1
    00000E7E 8B5E                   BF          L600
    00000E80 50FF                   MOV.L       @(60,R15),R0
    00000E82 8806                   CMP/EQ      #6,R0
    00000E84 8B5B                   BF          L600
            QR.c   334                            i++; //because of the position of this in if/then rats nest, need to advance bit c
                         +ount, since i wasn't inc'ed yet after the second write
            QR.c   335                            dir = +1;
    00000E86 E201                   MOV         #1,R2
    00000E88 53F7                   MOV.L       @(28,R15),R3
            QR.c   336                            y = 0;
    00000E8A E100                   MOV         #0,R1
    00000E8C 7301                   ADD         #1,R3
    00000E8E 1F37                   MOV.L       R3,@(28,R15)
    00000E90 1F2D                   MOV.L       R2,@(52,R15)
    00000E92 1F1F                   MOV.L       R1,@(60,R15)
            QR.c   337                            x = x - 3;
    00000E94 52FE                   MOV.L       @(56,R15),R2
    00000E96 72FD                   ADD         #-3,R2
    00000E98 1F2E                   MOV.L       R2,@(56,R15)
            QR.c   338                            for (j=0; j < 6; j++) {
    00000E9A 1F16                   MOV.L       R1,@(24,R15)
    00000E9C A044                   BRA         L601
    00000E9E 0009                   NOP
    00000EA0              L602:                             
            QR.c   339                                    if (i % 8 == 0) { working_byte = interleaved_output[++interleaved_index]; 
                         +} else { working_byte = working_byte << 1; }
    00000EA0 50F7                   MOV.L       @(28,R15),R0
    00000EA2 C807                   TST         #7,R0
    00000EA4 8B0C                   BF          L603
    00000EA6 E02B                   MOV         #43,R0
    00000EA8 51F9                   MOV.L       @(36,R15),R1
    00000EAA 7101                   ADD         #1,R1
    00000EAC 1F19                   MOV.L       R1,@(36,R15)
    00000EAE 9306                   MOV.W       L676+4,R3  ; H'0158
    00000EB0 33FC                   ADD         R15,R3
    00000EB2 313C                   ADD         R3,R1
    00000EB4 6210                   MOV.B       @R1,R2
    00000EB6 A009                   BRA         L604
    00000EB8 0F24                   MOV.B       R2,@(R0,R15)
    00000EBA              L676:                             
    00000EBA 0144                   .DATA.W     H'0144
    00000EBC 039C                   .DATA.W     H'039C
    00000EBE 0158                   .DATA.W     H'0158
    00000EC0              L603:                             
    00000EC0 E02B                   MOV         #43,R0
    00000EC2 03FC                   MOV.B       @(R0,R15),R3
    00000EC4 633C                   EXTU.B      R3,R3
    00000EC6 4300                   SHLL        R3
    00000EC8 E02B                   MOV         #43,R0




SH SERIES C/C++ Compiler (Ver. 6.0C)                                                                 03-Dec-2017 19:45:28  PAGE   43


SCT OFFSET   CODE       C LABEL     INSTRUCTION OPERAND    COMMENT

    00000ECA 0F34                   MOV.B       R3,@(R0,R15)
    00000ECC              L604:                             
            QR.c   340                                    if ((working_byte & 128) > 0) image[y][x] = 0;
    00000ECC E02B                   MOV         #43,R0
    00000ECE 00FC                   MOV.B       @(R0,R15),R0
    00000ED0 600C                   EXTU.B      R0,R0
    00000ED2 C980                   AND         #128,R0
    00000ED4 4015                   CMP/PL      R0
    00000ED6 8B07                   BF          L605
    00000ED8 50FF                   MOV.L       @(60,R15),R0
    00000EDA 63F3                   MOV         R15,R3
    00000EDC 52FE                   MOV.L       @(56,R15),R2
    00000EDE E100                   MOV         #0,R1
    00000EE0 4008                   SHLL2       R0
    00000EE2 7344                   ADD         #68,R3
    00000EE4 003E                   MOV.L       @(R0,R3),R0
    00000EE6 0214                   MOV.B       R1,@(R0,R2)
    00000EE8              L605:                             
            QR.c   341                                    if (is_mask_applicable(y, x, mask_number)) image[y][x]=~image[y][x];
    00000EE8 55FE                   MOV.L       @(56,R15),R5
    00000EEA E023                   MOV         #35,R0
    00000EEC 06FC                   MOV.B       @(R0,R15),R6
    00000EEE B887                   BSR         _is_mask_applicable
    00000EF0 54FF                   MOV.L       @(60,R15),R4
    00000EF2 2008                   TST         R0,R0
    00000EF4 890E                   BT          L606
    00000EF6 63F3                   MOV         R15,R3
    00000EF8 52FE                   MOV.L       @(56,R15),R2
    00000EFA 7344                   ADD         #68,R3
    00000EFC 51FF                   MOV.L       @(60,R15),R1
    00000EFE 50FF                   MOV.L       @(60,R15),R0
    00000F00 4008                   SHLL2       R0
    00000F02 4108                   SHLL2       R1
    00000F04 003E                   MOV.L       @(R0,R3),R0
    00000F06 313C                   ADD         R3,R1
    00000F08 53FE                   MOV.L       @(56,R15),R3
    00000F0A 320C                   ADD         R0,R2
    00000F0C 6012                   MOV.L       @R1,R0
    00000F0E 033C                   MOV.B       @(R0,R3),R3
    00000F10 6337                   NOT         R3,R3
    00000F12 2230                   MOV.B       R3,@R2
    00000F14              L606:                             
            QR.c   342                                    i++;
    00000F14 51F7                   MOV.L       @(28,R15),R1
    00000F16 7101                   ADD         #1,R1
    00000F18 1F17                   MOV.L       R1,@(28,R15)
            QR.c   343                                    y = y + dir;
    00000F1A 53FD                   MOV.L       @(52,R15),R3
    00000F1C 52FF                   MOV.L       @(60,R15),R2
    00000F1E 323C                   ADD         R3,R2
    00000F20 1F2F                   MOV.L       R2,@(60,R15)
    00000F22 51F6                   MOV.L       @(24,R15),R1
    00000F24 7101                   ADD         #1,R1
    00000F26 1F16                   MOV.L       R1,@(24,R15)
    00000F28              L601:                             
    00000F28 52F6                   MOV.L       @(24,R15),R2
    00000F2A E306                   MOV         #6,R3




SH SERIES C/C++ Compiler (Ver. 6.0C)                                                                 03-Dec-2017 19:45:28  PAGE   44


SCT OFFSET   CODE       C LABEL     INSTRUCTION OPERAND    COMMENT

    00000F2C 3232                   CMP/HS      R3,R2
    00000F2E 8BB7                   BF          L602
            QR.c   344                            }
            QR.c   345                            i--; //because of the position of this in if/then rats nest, need to take back an 
                         +i, since i gets inc'ed by the overall for loop at the end
    00000F30 53F7                   MOV.L       @(28,R15),R3
    00000F32 73FF                   ADD         #-1,R3
    00000F34 1F37                   MOV.L       R3,@(28,R15)
            QR.c   346                                    // i tried moving the block around, but ran into a segfault, and didn't ha
                         +ve time to investigate too closely
            QR.c   347                            x = x + 1;
    00000F36 52FE                   MOV.L       @(56,R15),R2
    00000F38 7201                   ADD         #1,R2
    00000F3A A02B                   BRA         L653
    00000F3C 0009                   NOP
    00000F3E              L600:                             
            QR.c   348                    } else if ((x == 10) && (y == max_pixels)) { //hit bottom row around "dark module"
    00000F3E 50FE                   MOV.L       @(56,R15),R0
    00000F40 880A                   CMP/EQ      #10,R0
    00000F42 8B0A                   BF          L608
    00000F44 9048                   MOV.W       L677,R0    ; H'0144
    00000F46 02FE                   MOV.L       @(R0,R15),R2
    00000F48 53FF                   MOV.L       @(60,R15),R3
    00000F4A 3320                   CMP/EQ      R2,R3
    00000F4C 8B05                   BF          L608
            QR.c   349                            dir = -1;
    00000F4E E3FF                   MOV         #-1,R3
            QR.c   350                            y = max_pixels - 9;
    00000F50 9042                   MOV.W       L677,R0    ; H'0144
    00000F52 1F3D                   MOV.L       R3,@(52,R15)
    00000F54 02FE                   MOV.L       @(R0,R15),R2
            QR.c   351                            x = x - 2;
    00000F56 A008                   BRA         L652
    00000F58 72F7                   ADD         #-9,R2
    00000F5A              L608:                             
            QR.c   352                    } else if (y == max_pixels) { // hit bottom row
    00000F5A 903D                   MOV.W       L677,R0    ; H'0144
    00000F5C 51FF                   MOV.L       @(60,R15),R1
    00000F5E 02FE                   MOV.L       @(R0,R15),R2
    00000F60 3120                   CMP/EQ      R2,R1
    00000F62 8B07                   BF          L610
            QR.c   353                            dir = -1;
    00000F64 E3FF                   MOV         #-1,R3
            QR.c   354                            y = max_pixels - 1;
    00000F66 72FF                   ADD         #-1,R2
    00000F68 1F3D                   MOV.L       R3,@(52,R15)
            QR.c   355                            x = x - 2;
    00000F6A              L652:                             
    00000F6A 1F2F                   MOV.L       R2,@(60,R15)
    00000F6C 53FE                   MOV.L       @(56,R15),R3
    00000F6E 73FE                   ADD         #-2,R3
    00000F70 A02A                   BRA         L599
    00000F72 1F3E                   MOV.L       R3,@(56,R15)
    00000F74              L610:                             
            QR.c   356                    } else if ((x < 10) && (y > max_pixels-9)) { //hit bottom-left finder pattern (near dark m
                         +odule)
    00000F74 53FE                   MOV.L       @(56,R15),R3




SH SERIES C/C++ Compiler (Ver. 6.0C)                                                                 03-Dec-2017 19:45:28  PAGE   45


SCT OFFSET   CODE       C LABEL     INSTRUCTION OPERAND    COMMENT

    00000F76 E10A                   MOV         #10,R1
    00000F78 3313                   CMP/GE      R1,R3
    00000F7A 890D                   BT          L612
    00000F7C 50FF                   MOV.L       @(60,R15),R0
    00000F7E 72F7                   ADD         #-9,R2
    00000F80 3027                   CMP/GT      R2,R0
    00000F82 8B09                   BF          L612
            QR.c   357                            dir = -1;
            QR.c   358                            y = max_pixels - 9;
    00000F84 9028                   MOV.W       L677,R0    ; H'0144
    00000F86 E2FF                   MOV         #-1,R2
    00000F88 1F2D                   MOV.L       R2,@(52,R15)
    00000F8A 03FE                   MOV.L       @(R0,R15),R3
    00000F8C 73F7                   ADD         #-9,R3
    00000F8E 1F3F                   MOV.L       R3,@(60,R15)
            QR.c   359                            x = x - 2;
    00000F90 52FE                   MOV.L       @(56,R15),R2
    00000F92 72FE                   ADD         #-2,R2
    00000F94              L653:                             
    00000F94 A018                   BRA         L599
    00000F96 1F2E                   MOV.L       R2,@(56,R15)
    00000F98              L612:                             
            QR.c   360                    } else if ((qr_version > 5) && (x < 7) && (y > max_pixels-12)) { //skip over bottom 6x3 ve
                         +rsion info block for large QR Version>=7
    00000F98 901F                   MOV.W       L677+2,R0  ; H'039C
    00000F9A E305                   MOV         #5,R3
    00000F9C 01FE                   MOV.L       @(R0,R15),R1
    00000F9E 3137                   CMP/GT      R3,R1
    00000FA0 8B12                   BF          L599
    00000FA2 E207                   MOV         #7,R2
    00000FA4 51FE                   MOV.L       @(56,R15),R1
    00000FA6 3123                   CMP/GE      R2,R1
    00000FA8 890E                   BT          L599
    00000FAA 9015                   MOV.W       L677,R0    ; H'0144
    00000FAC 01FE                   MOV.L       @(R0,R15),R1
    00000FAE 71F4                   ADD         #-12,R1
    00000FB0 50FF                   MOV.L       @(60,R15),R0
    00000FB2 3017                   CMP/GT      R1,R0
    00000FB4 8B08                   BF          L599
            QR.c   361                            dir = -1;
    00000FB6 E3FF                   MOV         #-1,R3
            QR.c   362                            y = max_pixels - 12;
    00000FB8 900E                   MOV.W       L677,R0    ; H'0144
    00000FBA 1F3D                   MOV.L       R3,@(52,R15)
    00000FBC 02FE                   MOV.L       @(R0,R15),R2
    00000FBE 72F4                   ADD         #-12,R2
    00000FC0 1F2F                   MOV.L       R2,@(60,R15)
            QR.c   363                            x = x -2;
    00000FC2 53FE                   MOV.L       @(56,R15),R3
    00000FC4 73FE                   ADD         #-2,R3
    00000FC6 1F3E                   MOV.L       R3,@(56,R15)
    00000FC8              L599:                             
            QR.c   364                    }
            QR.c   365                    if (y == 6) //skip vertical timing lines
    00000FC8 50FF                   MOV.L       @(60,R15),R0
    00000FCA 8806                   CMP/EQ      #6,R0
    00000FCC 8B06                   BF          L615




SH SERIES C/C++ Compiler (Ver. 6.0C)                                                                 03-Dec-2017 19:45:28  PAGE   46


SCT OFFSET   CODE       C LABEL     INSTRUCTION OPERAND    COMMENT

            QR.c   366                            y += dir;
    00000FCE 53FD                   MOV.L       @(52,R15),R3
    00000FD0 52FF                   MOV.L       @(60,R15),R2
    00000FD2 323C                   ADD         R3,R2
    00000FD4 A008                   BRA         L616
    00000FD6 1F2F                   MOV.L       R2,@(60,R15)
    00000FD8              L677:                             
    00000FD8 0144                   .DATA.W     H'0144
    00000FDA 039C                   .DATA.W     H'039C
    00000FDC              L615:                             
            QR.c   367                    else if (x == 6) //skip horizontal timing line
    00000FDC 50FE                   MOV.L       @(56,R15),R0
    00000FDE 8806                   CMP/EQ      #6,R0
    00000FE0 8B02                   BF          L616
            QR.c   368                            x = x-1;
    00000FE2 52FE                   MOV.L       @(56,R15),R2
    00000FE4 72FF                   ADD         #-1,R2
    00000FE6 1F2E                   MOV.L       R2,@(56,R15)
    00000FE8              L616:                             
    00000FE8 53F7                   MOV.L       @(28,R15),R3
    00000FEA 7301                   ADD         #1,R3
    00000FEC 1F37                   MOV.L       R3,@(28,R15)
    00000FEE              L573:                             
    00000FEE 53FB                   MOV.L       @(44,R15),R3
    00000FF0 52FC                   MOV.L       @(48,R15),R2
    00000FF2 323C                   ADD         R3,R2
    00000FF4 51F7                   MOV.L       @(28,R15),R1
    00000FF6 3122                   CMP/HS      R2,R1
    00000FF8 8901                   BT          L678
    00000FFA AE26                   BRA         L574
    00000FFC 0009                   NOP
    00000FFE              L678:                             
            QR.c   369            }
            QR.c   370            if(qr_version<3){
    00000FFE E303                   MOV         #3,R3
    00001000 908C                   MOV.W       L679,R0    ; H'039C
    00001002 02FE                   MOV.L       @(R0,R15),R2
    00001004 3233                   CMP/GE      R3,R2
    00001006 8947                   BT          L618
            QR.c   371                    for(i=0;i<max_pixels;i++){
    00001008 E200                   MOV         #0,R2
    0000100A A03E                   BRA         L619
    0000100C 1F27                   MOV.L       R2,@(28,R15)
    0000100E              L620:                             
            QR.c   372                            for(j=0;j<max_pixels;j++){
    0000100E E300                   MOV         #0,R3
    00001010 A033                   BRA         L621
    00001012 1F36                   MOV.L       R3,@(24,R15)
    00001014              L622:                             
            QR.c   373                                    if(image[i][j]==0){
    00001014 51F7                   MOV.L       @(28,R15),R1
    00001016 63F3                   MOV         R15,R3
    00001018 52F6                   MOV.L       @(24,R15),R2
    0000101A 4108                   SHLL2       R1
    0000101C 7344                   ADD         #68,R3
    0000101E 313C                   ADD         R3,R1
    00001020 6012                   MOV.L       @R1,R0




SH SERIES C/C++ Compiler (Ver. 6.0C)                                                                 03-Dec-2017 19:45:28  PAGE   47


SCT OFFSET   CODE       C LABEL     INSTRUCTION OPERAND    COMMENT

    00001022 012C                   MOV.B       @(R0,R2),R1
    00001024 611C                   EXTU.B      R1,R1
    00001026 2118                   TST         R1,R1
    00001028 8B24                   BF          L623
            QR.c   374                                            x0=64-max_pixels+2*j;
    0000102A 4200                   SHLL        R2
    0000102C 9077                   MOV.W       L679+2,R0  ; H'0144
            QR.c   375                                            y0=32-max_pixels+2*i;
    0000102E E320                   MOV         #32,R3
    00001030 01FE                   MOV.L       @(R0,R15),R1
            QR.c   376                                            Bdisp_SetPoint_VRAM(x0,y0,1);
    00001032 E601                   MOV         #1,R6
    00001034 E040                   MOV         #64,R0
    00001036 3018                   SUB         R1,R0
    00001038 302C                   ADD         R2,R0
    0000103A 3318                   SUB         R1,R3
    0000103C 1F05                   MOV.L       R0,@(20,R15)
    0000103E 52F7                   MOV.L       @(28,R15),R2
    00001040 4200                   SHLL        R2
    00001042 332C                   ADD         R2,R3
    00001044 1F34                   MOV.L       R3,@(16,R15)
    00001046 6533                   MOV         R3,R5
    00001048 D336                   MOV.L       L679+8,R3  ; _Bdisp_SetPoint_VRAM
    0000104A 430B                   JSR         @R3
    0000104C 54F5                   MOV.L       @(20,R15),R4
            QR.c   377                                            Bdisp_SetPoint_VRAM(x0+1,y0,1);
    0000104E E601                   MOV         #1,R6
    00001050 55F4                   MOV.L       @(16,R15),R5
    00001052 54F5                   MOV.L       @(20,R15),R4
    00001054 D333                   MOV.L       L679+8,R3  ; _Bdisp_SetPoint_VRAM
    00001056 430B                   JSR         @R3
    00001058 7401                   ADD         #1,R4
            QR.c   378                                            Bdisp_SetPoint_VRAM(x0,y0+1,1);
    0000105A E601                   MOV         #1,R6
    0000105C 55F4                   MOV.L       @(16,R15),R5
    0000105E 7501                   ADD         #1,R5
    00001060 D330                   MOV.L       L679+8,R3  ; _Bdisp_SetPoint_VRAM
    00001062 430B                   JSR         @R3
    00001064 54F5                   MOV.L       @(20,R15),R4
            QR.c   379                                            Bdisp_SetPoint_VRAM(x0+1,y0+1,1);
    00001066 E601                   MOV         #1,R6
    00001068 55F4                   MOV.L       @(16,R15),R5
    0000106A 7501                   ADD         #1,R5
    0000106C 54F5                   MOV.L       @(20,R15),R4
    0000106E D32D                   MOV.L       L679+8,R3  ; _Bdisp_SetPoint_VRAM
    00001070 430B                   JSR         @R3
    00001072 7401                   ADD         #1,R4
    00001074              L623:                             
    00001074 52F6                   MOV.L       @(24,R15),R2
    00001076 7201                   ADD         #1,R2
    00001078 1F26                   MOV.L       R2,@(24,R15)
    0000107A              L621:                             
    0000107A 9050                   MOV.W       L679+2,R0  ; H'0144
    0000107C 51F6                   MOV.L       @(24,R15),R1
    0000107E 03FE                   MOV.L       @(R0,R15),R3
    00001080 3132                   CMP/HS      R3,R1
    00001082 8BC7                   BF          L622




SH SERIES C/C++ Compiler (Ver. 6.0C)                                                                 03-Dec-2017 19:45:28  PAGE   48


SCT OFFSET   CODE       C LABEL     INSTRUCTION OPERAND    COMMENT

    00001084 53F7                   MOV.L       @(28,R15),R3
    00001086 7301                   ADD         #1,R3
    00001088 1F37                   MOV.L       R3,@(28,R15)
    0000108A              L619:                             
    0000108A 9048                   MOV.W       L679+2,R0  ; H'0144
    0000108C 51F7                   MOV.L       @(28,R15),R1
    0000108E 02FE                   MOV.L       @(R0,R15),R2
    00001090 3122                   CMP/HS      R2,R1
    00001092 8BBC                   BF          L620
    00001094 A079                   BRA         L624
    00001096 0009                   NOP
    00001098              L618:                             
            QR.c   380                                            //Bdisp_SetPoint_VRAM(2*j,2*i,1);
            QR.c   381                                            //Bdisp_SetPoint_VRAM(2*j+1,2*i,1);
            QR.c   382                                            //Bdisp_SetPoint_VRAM(2*j,2*i+1,1);
            QR.c   383                                            //Bdisp_SetPoint_VRAM(2*j+1,2*i+1,1);
            QR.c   384                                    }
            QR.c   385                            }
            QR.c   386                    }
            QR.c   387            }
            QR.c   388            else{
            QR.c   389                    x0=64-.5*max_pixels;
    00001098 9042                   MOV.W       L679+4,R0  ; H'015C
    0000109A 7FF8                   ADD         #-8,R15
    0000109C D123                   MOV.L       L679+16,R1 ; __itod
    0000109E E200                   MOV         #0,R2
    000010A0 2F26                   MOV.L       R2,@-R15
    000010A2 D221                   MOV.L       L679+12,R2 ; H'40500000
    000010A4 2F26                   MOV.L       R2,@-R15
    000010A6 7FF8                   ADD         #-8,R15
    000010A8 00FE                   MOV.L       @(R0,R15),R0
    000010AA 7FF8                   ADD         #-8,R15
    000010AC 410B                   JSR         @R1
    000010AE 2FF6                   MOV.L       R15,@-R15
    000010B0 D020                   MOV.L       L679+24,R0 ; __muld
    000010B2 E200                   MOV         #0,R2
    000010B4 2F26                   MOV.L       R2,@-R15
    000010B6 D21E                   MOV.L       L679+20,R2 ; H'3FE00000
    000010B8 2F26                   MOV.L       R2,@-R15
    000010BA 61F3                   MOV         R15,R1
    000010BC 7110                   ADD         #16,R1
    000010BE 400B                   JSR         @R0
    000010C0 2F16                   MOV.L       R1,@-R15
    000010C2 62F3                   MOV         R15,R2
    000010C4 D11C                   MOV.L       L679+28,R1 ; __subdr
    000010C6 7210                   ADD         #16,R2
    000010C8 410B                   JSR         @R1
    000010CA 2F26                   MOV.L       R2,@-R15
    000010CC D01B                   MOV.L       L679+32,R0 ; __dtou
    000010CE 400B                   JSR         @R0
    000010D0 0009                   NOP
            QR.c   390                    y0=32-.5*max_pixels;
    000010D2 E200                   MOV         #0,R2
    000010D4 D115                   MOV.L       L679+16,R1 ; __itod
    000010D6 1F05                   MOV.L       R0,@(20,R15)
    000010D8 9022                   MOV.W       L679+4,R0  ; H'015C
    000010DA 7FF8                   ADD         #-8,R15




SH SERIES C/C++ Compiler (Ver. 6.0C)                                                                 03-Dec-2017 19:45:28  PAGE   49


SCT OFFSET   CODE       C LABEL     INSTRUCTION OPERAND    COMMENT

    000010DC 2F26                   MOV.L       R2,@-R15
    000010DE D218                   MOV.L       L679+36,R2 ; H'40400000
    000010E0 2F26                   MOV.L       R2,@-R15
    000010E2 7FF8                   ADD         #-8,R15
    000010E4 00FE                   MOV.L       @(R0,R15),R0
    000010E6 7FF8                   ADD         #-8,R15
    000010E8 410B                   JSR         @R1
    000010EA 2FF6                   MOV.L       R15,@-R15
    000010EC D011                   MOV.L       L679+24,R0 ; __muld
    000010EE E200                   MOV         #0,R2
    000010F0 2F26                   MOV.L       R2,@-R15
    000010F2 D20F                   MOV.L       L679+20,R2 ; H'3FE00000
    000010F4 2F26                   MOV.L       R2,@-R15
    000010F6 61F3                   MOV         R15,R1
    000010F8 7110                   ADD         #16,R1
    000010FA 400B                   JSR         @R0
    000010FC 2F16                   MOV.L       R1,@-R15
    000010FE 62F3                   MOV         R15,R2
    00001100 D10D                   MOV.L       L679+28,R1 ; __subdr
    00001102 7210                   ADD         #16,R2
    00001104 410B                   JSR         @R1
    00001106 2F26                   MOV.L       R2,@-R15
    00001108 D00C                   MOV.L       L679+32,R0 ; __dtou
    0000110A 400B                   JSR         @R0
    0000110C 0009                   NOP
            QR.c   391                    for(i=0;i<max_pixels;i++){
    0000110E E200                   MOV         #0,R2
    00001110 1F04                   MOV.L       R0,@(16,R15)
    00001112 A035                   BRA         L625
    00001114 1F27                   MOV.L       R2,@(28,R15)
    00001116              L626:                             
            QR.c   392                            for(j=0;j<max_pixels;j++){
    00001116 E300                   MOV         #0,R3
    00001118 A02A                   BRA         L627
    0000111A 1F36                   MOV.L       R3,@(24,R15)
    0000111C              L679:                             
    0000111C 039C                   .DATA.W     H'039C
    0000111E 0144                   .DATA.W     H'0144
    00001120 015C                   .DATA.W     H'015C
    00001122 0000                   .DATA.W     0
    00001124 <00000000>             .DATA.L     _Bdisp_SetPoint_VRAM
    00001128 40500000               .DATA.L     H'40500000
    0000112C <00000000>             .DATA.L     __itod
    00001130 3FE00000               .DATA.L     H'3FE00000
    00001134 <00000000>             .DATA.L     __muld
    00001138 <00000000>             .DATA.L     __subdr
    0000113C <00000000>             .DATA.L     __dtou
    00001140 40400000               .DATA.L     H'40400000
    00001144              L628:                             
            QR.c   393                                    if(image[i][j]==0){
    00001144 51F7                   MOV.L       @(28,R15),R1
    00001146 63F3                   MOV         R15,R3
    00001148 52F6                   MOV.L       @(24,R15),R2
    0000114A 4108                   SHLL2       R1
    0000114C 7344                   ADD         #68,R3
    0000114E 313C                   ADD         R3,R1
    00001150 6012                   MOV.L       @R1,R0




SH SERIES C/C++ Compiler (Ver. 6.0C)                                                                 03-Dec-2017 19:45:28  PAGE   50


SCT OFFSET   CODE       C LABEL     INSTRUCTION OPERAND    COMMENT

    00001152 012C                   MOV.B       @(R0,R2),R1
    00001154 611C                   EXTU.B      R1,R1
    00001156 2118                   TST         R1,R1
    00001158 8B07                   BF          L629
            QR.c   394                                            Bdisp_SetPoint_VRAM(x0+j,y0+i,1);
    0000115A E601                   MOV         #1,R6
    0000115C 51F4                   MOV.L       @(16,R15),R1
    0000115E 55F7                   MOV.L       @(28,R15),R5
    00001160 54F5                   MOV.L       @(20,R15),R4
    00001162 351C                   ADD         R1,R5
    00001164 D315                   MOV.L       L680+4,R3  ; _Bdisp_SetPoint_VRAM
    00001166 430B                   JSR         @R3
    00001168 342C                   ADD         R2,R4
    0000116A              L629:                             
    0000116A 52F6                   MOV.L       @(24,R15),R2
    0000116C 7201                   ADD         #1,R2
    0000116E 1F26                   MOV.L       R2,@(24,R15)
    00001170              L627:                             
    00001170 9022                   MOV.W       L680,R0    ; H'0144
    00001172 03FE                   MOV.L       @(R0,R15),R3
    00001174 51F6                   MOV.L       @(24,R15),R1
    00001176 3132                   CMP/HS      R3,R1
    00001178 8BE4                   BF          L628
    0000117A 53F7                   MOV.L       @(28,R15),R3
    0000117C 7301                   ADD         #1,R3
    0000117E 1F37                   MOV.L       R3,@(28,R15)
    00001180              L625:                             
    00001180 901A                   MOV.W       L680,R0    ; H'0144
    00001182 02FE                   MOV.L       @(R0,R15),R2
    00001184 51F7                   MOV.L       @(28,R15),R1
    00001186 3122                   CMP/HS      R2,R1
    00001188 8BC5                   BF          L626
    0000118A              L624:                             
            QR.c   395                                    }
            QR.c   396                            }
            QR.c   397                    }
            QR.c   398            }
            QR.c   399            for(i=0;i<64;i++){
    0000118A A00A                   BRA         L650
    0000118C E300                   MOV         #0,R3
    0000118E              L631:                             
            QR.c   400                    free(image[i]);
    0000118E 63F3                   MOV         R15,R3
    00001190 D20B                   MOV.L       L680+8,R2  ; _free
    00001192 7344                   ADD         #68,R3
    00001194 54F7                   MOV.L       @(28,R15),R4
    00001196 4408                   SHLL2       R4
    00001198 343C                   ADD         R3,R4
    0000119A 420B                   JSR         @R2
    0000119C 6442                   MOV.L       @R4,R4
    0000119E 53F7                   MOV.L       @(28,R15),R3
    000011A0 7301                   ADD         #1,R3
    000011A2              L650:                             
    000011A2 E240                   MOV         #64,R2
    000011A4 1F37                   MOV.L       R3,@(28,R15)
    000011A6 6133                   MOV         R3,R1
    000011A8 3122                   CMP/HS      R2,R1




SH SERIES C/C++ Compiler (Ver. 6.0C)                                                                 03-Dec-2017 19:45:28  PAGE   51


SCT OFFSET   CODE       C LABEL     INSTRUCTION OPERAND    COMMENT

    000011AA 8BF0                   BF          L631
    000011AC              L510:                             
            QR.c   401            }
            QR.c   402    }
    000011AC 9105                   MOV.W       L680+2,R1  ; H'04A0
    000011AE 3F1C                   ADD         R1,R15
    000011B0 4F16                   LDS.L       @R15+,MACL
    000011B2 4F26                   LDS.L       @R15+,PR
    000011B4 000B                   RTS
    000011B6 68F6                   MOV.L       @R15+,R8
    000011B8              L680:                             
    000011B8 0144                   .DATA.W     H'0144
    000011BA 04A0                   .DATA.W     H'04A0
    000011BC <00000000>             .DATA.L     _Bdisp_SetPoint_VRAM
    000011C0 <00000000>             .DATA.L     _free
D   00000000              _a:                              ; static: a
    00000000 0102040810             .DATA.B     H'01,H'02,H'04,H'08,H'10,H'20,H'40,H'80,H'1D,H'3A,H'74,H'E8,H'CD,H'87,H'13,H'26,
             2040801D3A +                       H'4C,H'98,H'2D,H'5A,H'B4,H'75,H'EA,H'C9,H'8F,H'03,H'06,H'0C,H'18,H'30,H'60,H'C0,
             74E8CD8713 +                       H'9D,H'27,H'4E,H'9C,H'25,H'4A,H'94,H'35,H'6A,H'D4,H'B5,H'77,H'EE,H'C1,H'9F,H'23,
             264C982D5A +                       H'46,H'8C,H'05,H'0A,H'14,H'28,H'50,H'A0,H'5D,H'BA,H'69,H'D2,H'B9,H'6F,H'DE,H'A1,
             B475EAC98F +                       H'5F,H'BE,H'61,H'C2,H'99,H'2F,H'5E,H'BC,H'65,H'CA,H'89,H'0F,H'1E,H'3C,H'78,H'F0,
             03060C1830 +                       H'FD,H'E7,H'D3,H'BB,H'6B,H'D6,H'B1,H'7F,H'FE,H'E1,H'DF,H'A3,H'5B,H'B6,H'71,H'E2,
             60C09D274E +                       H'D9,H'AF,H'43,H'86,H'11,H'22,H'44,H'88,H'0D,H'1A,H'34,H'68,H'D0,H'BD,H'67,H'CE,
             9C254A9435 +                       H'81,H'1F,H'3E,H'7C,H'F8,H'ED,H'C7,H'93,H'3B,H'76,H'EC,H'C5,H'97,H'33,H'66,H'CC,
             6AD4B577EE +                       H'85,H'17,H'2E,H'5C,H'B8,H'6D,H'DA,H'A9,H'4F,H'9E,H'21,H'42,H'84,H'15,H'2A,H'54,
             C19F23468C +                       H'A8,H'4D,H'9A,H'29,H'52,H'A4,H'55,H'AA,H'49,H'92,H'39,H'72,H'E4,H'D5,H'B7,H'73,
             050A142850 +                       H'E6,H'D1,H'BF,H'63,H'C6,H'91,H'3F,H'7E,H'FC,H'E5,H'D7,H'B3,H'7B,H'F6,H'F1,H'FF,
             A05DBA69D2 +                       H'E3,H'DB,H'AB,H'4B,H'96,H'31,H'62,H'C4,H'95,H'37,H'6E,H'DC,H'A5,H'57,H'AE,H'41,
             B96FDEA15F +                       H'82,H'19,H'32,H'64,H'C8,H'8D,H'07,H'0E,H'1C,H'38,H'70,H'E0,H'DD,H'A7,H'53,H'A6,
             BE61C2992F +                       H'51,H'A2,H'59,H'B2
             5EBC65CA89   
             0F1E3C78F0   
             FDE7D3BB6B   
             D6B17FFEE1   
             DFA35BB671   
             E2D9AF4386   
             112244880D   
             1A3468D0BD   
             67CE811F3E   
             7CF8EDC793   
             3B76ECC597   
             3366CC8517   
             2E5CB86DDA   
             A94F9E2142   
             84152A54A8   
             4D9A2952A4   
             55AA499239   
             72E4D5B773   
             E6D1BF63C6   
             913F7EFCE5   
             D7B37BF6F1   
             FFE3DBAB4B   
             963162C495   
             376EDCA557   
             AE41821932   
             64C88D070E   
             1C3870E0DD   




SH SERIES C/C++ Compiler (Ver. 6.0C)                                                                 03-Dec-2017 19:45:28  PAGE   52


SCT OFFSET   CODE       C LABEL     INSTRUCTION OPERAND    COMMENT

             A753A651A2   
             59B2         
    000000D4 79F2F9EFC3             .DATA.B     H'79,H'F2,H'F9,H'EF,H'C3,H'9B,H'2B,H'56,H'AC,H'45,H'8A,H'09,H'12,H'24,H'48,H'90,
             9B2B56AC45 +                       H'3D,H'7A,H'F4,H'F5,H'F7,H'F3,H'FB,H'EB,H'CB,H'8B,H'0B,H'16,H'2C,H'58,H'B0,H'7D,
             8A09122448 +                       H'FA,H'E9,H'CF,H'83,H'1B,H'36,H'6C,H'D8,H'AD,H'47,H'8E,H'01
             903D7AF4F5   
             F7F3FBEBCB   
             8B0B162C58   
             B07DFAE9CF   
             831B366CD8   
             AD478E01     
    00000100              _a_inv:                          ; static: a_inv
    00000100 0000011902             .DATA.B     H'00,H'00,H'01,H'19,H'02,H'32,H'1A,H'C6,H'03,H'DF,H'33,H'EE,H'1B,H'68,H'C7,H'4B,
             321AC603DF +                       H'04,H'64,H'E0,H'0E,H'34,H'8D,H'EF,H'81,H'1C,H'C1,H'69,H'F8,H'C8,H'08,H'4C,H'71,
             33EE1B68C7 +                       H'05,H'8A,H'65,H'2F,H'E1,H'24,H'0F,H'21,H'35,H'93,H'8E,H'DA,H'F0,H'12,H'82,H'45,
             4B0464E00E +                       H'1D,H'B5,H'C2,H'7D,H'6A,H'27,H'F9,H'B9,H'C9,H'9A,H'09,H'78,H'4D,H'E4,H'72,H'A6,
             348DEF811C +                       H'06,H'BF,H'8B,H'62,H'66,H'DD,H'30,H'FD,H'E2,H'98,H'25,H'B3,H'10,H'91,H'22,H'88,
             C169F8C808 +                       H'36,H'D0,H'94,H'CE,H'8F,H'96,H'DB,H'BD,H'F1,H'D2,H'13,H'5C,H'83,H'38,H'46,H'40,
             4C71058A65 +                       H'1E,H'42,H'B6,H'A3,H'C3,H'48,H'7E,H'6E,H'6B,H'3A,H'28,H'54,H'FA,H'85,H'BA,H'3D,
             2FE1240F21 +                       H'CA,H'5E,H'9B,H'9F,H'0A,H'15,H'79,H'2B,H'4E,H'D4,H'E5,H'AC,H'73,H'F3,H'A7,H'57,
             35938EDAF0 +                       H'07,H'70,H'C0,H'F7,H'8C,H'80,H'63,H'0D,H'67,H'4A,H'DE,H'ED,H'31,H'C5,H'FE,H'18,
             1282451DB5 +                       H'E3,H'A5,H'99,H'77,H'26,H'B8,H'B4,H'7C,H'11,H'44,H'92,H'D9,H'23,H'20,H'89,H'2E,
             C27D6A27F9 +                       H'37,H'3F,H'D1,H'5B,H'95,H'BC,H'CF,H'CD,H'90,H'87,H'97,H'B2,H'DC,H'FC,H'BE,H'61,
             B9C99A0978 +                       H'F2,H'56,H'D3,H'AB,H'14,H'2A,H'5D,H'9E,H'84,H'3C,H'39,H'53,H'47,H'6D,H'41,H'A2,
             4DE472A606 +                       H'1F,H'2D,H'43,H'D8,H'B7,H'7B,H'A4,H'76,H'C4,H'17,H'49,H'EC,H'7F,H'0C,H'6F,H'F6,
             BF8B6266DD +                       H'6C,H'A1,H'3B,H'52
             30FDE29825   
             B310912288   
             36D094CE8F   
             96DBBDF1D2   
             135C833846   
             401E42B6A3   
             C3487E6E6B   
             3A2854FA85   
             BA3DCA5E9B   
             9F0A15792B   
             4ED4E5AC73   
             F3A7570770   
             C0F78C8063   
             0D674ADEED   
             31C5FE18E3   
             A5997726B8   
             B47C114492   
             D92320892E   
             373FD15B95   
             BCCFCD9087   
             97B2DCFCBE   
             61F256D3AB   
             142A5D9E84   
             3C3953476D   
             41A21F2D43   
             D8B77BA476   
             C41749EC7F   
             0C6FF66CA1   
             3B52         
    000001D4 299D55AAFB             .DATA.B     H'29,H'9D,H'55,H'AA,H'FB,H'60,H'86,H'B1,H'BB,H'CC,H'3E,H'5A,H'CB,H'59,H'5F,H'B0,
             6086B1BBCC +                       H'9C,H'A9,H'A0,H'51,H'0B,H'F5,H'16,H'EB,H'7A,H'75,H'2C,H'D7,H'4F,H'AE,H'D5,H'E9,




SH SERIES C/C++ Compiler (Ver. 6.0C)                                                                 03-Dec-2017 19:45:28  PAGE   53


SCT OFFSET   CODE       C LABEL     INSTRUCTION OPERAND    COMMENT

             3E5ACB595F +                       H'E6,H'E7,H'AD,H'E8,H'74,H'D6,H'F4,H'EA,H'A8,H'50,H'58,H'AF
             B09CA9A051   
             0BF516EB7A   
             752CD74FAE   
             D5E9E6E7AD   
             E874D6F4EA   
             A85058AF     
    00000200              _gen_poly:                       ; static: gen_poly
    00000200 4A98B06456             .DATA.B     H'4A,H'98,H'B0,H'64,H'56,H'64,H'6A,H'68,H'82,H'DA,H'CE,H'8C,H'4E,H'D7,H'EA,H'9E,
             646A6882DA +                       H'5E,H'B8,H'61,H'76,H'AA,H'4F,H'BB,H'98,H'94,H'FC,H'B3,H'05,H'62,H'60,H'99,H'11,
             CE8C4ED7EA +                       H'3C,H'4F,H'32,H'3D,H'A3,H'1A,H'BB,H'CA,H'B4,H'DD,H'E1,H'53,H'EF,H'9C,H'A4,H'D4,
             9E5EB86176 +                       H'D4,H'BC,H'BE,H'D2,H'AB,H'F7,H'F2,H'5D,H'E6,H'0E,H'6D,H'DD,H'35,H'C8,H'4A,H'08,
             AA4FBB9894 +                       H'AC,H'62,H'50,H'DB,H'86,H'A0,H'69,H'A5,H'E7,H'E5,H'79,H'87,H'30,H'D3,H'75,H'FB,
             FCB3056260 +                       H'7E,H'9F,H'B4,H'A9,H'98,H'C0,H'E2,H'E4,H'DA,H'6F,H'00,H'75,H'E8,H'57,H'60,H'E3,
             99113C4F32 +                       H'15,H'AD,H'7D,H'9E,H'02,H'67,H'B6,H'76,H'11,H'91,H'C9,H'6F,H'1C,H'A5,H'35,H'A1,
             3DA31ABBCA +                       H'15,H'F5,H'8E,H'0D,H'66,H'30,H'E3,H'99,H'91,H'DA,H'46,H'A8,H'DF,H'C8,H'68,H'E0,
             B4DDE153EF +                       H'EA,H'6C,H'B4,H'6E,H'BE,H'C3,H'93,H'CD,H'1B,H'E8,H'C9,H'15,H'2B,H'F5,H'57,H'2A,
             9CA4D4D4BC +                       H'C3,H'D4,H'77,H'F2,H'25,H'09,H'7B,H'29,H'AD,H'91,H'98,H'D8,H'1F,H'B3,H'B6,H'32,
             BED2ABF7F2 +                       H'30,H'6E,H'56,H'EF,H'60,H'DE,H'7D,H'2A,H'AD,H'E2,H'C1,H'E0,H'82,H'9C,H'25,H'FB,
             5DE60E6DDD +                       H'D8,H'EE,H'28,H'C0,H'B4
             35C84A08AC   
             6250DB86A0   
             69A5E7E579   
             8730D375FB   
             7E9FB4A998   
             C0E2E4DA6F   
             0075E85760   
             E315AD7D9E   
             0267B67611   
             91C96F1CA5   
             35A115F58E   
             0D6630E399   
             91DA46A8DF   
             C868E0EA6C   
             B46EBEC393   
             CD1BE8C915   
             2BF5572AC3   
             D477F22509   
             7B29AD9198   
             D81FB3B632   
             306E56EF60   
             DE7D2AADE2   
             C1E0829C25   
             FBD8EE28C0   
             B4           
    000002B5              _gen_offset:                     ; static: gen_offset
    000002B5 0000000000             .DATA.B     H'00,H'00,H'00,H'00,H'00,H'0D,H'00,H'1F,H'00,H'33,H'00,H'49,H'00,H'61,H'00,H'7B,
             0D001F0033 +                       H'00,H'97
             0049006100   
             7B0097       
    000002C7 00000001               .RES.B      1
    000002C8              _mask_info:                      ; static: mask_info
    000002C8 0000355F00             .DATA.L     H'0000355F,H'00003068,H'00003F31,H'00003A06,H'000024B4,H'00002183,H'00002EDA,
             0030680000 +                       H'00002BED
             3F3100003A   
             06000024B4   
             0000218300   




SH SERIES C/C++ Compiler (Ver. 6.0C)                                                                 03-Dec-2017 19:45:28  PAGE   54


SCT OFFSET   CODE       C LABEL     INSTRUCTION OPERAND    COMMENT

             002EDA0000   
             2BED         
    000002E8              _version_info:                   ; static: version_info
    000002E8 1432073C16             .DATA.B     H'14,H'32,H'07,H'3C,H'16,H'08,H'19,H'2A,H'09,H'13,H'13,H'0A,H'36,H'2F,H'0B,H'22,
             08192A0913 +                       H'1D,H'0C,H'07,H'21,H'0D,H'0D,H'18,H'0E,H'28,H'24,H'0F,H'38,H'2D,H'10,H'1D,H'11,
             130A362F0B +                       H'11,H'17,H'28,H'12,H'32,H'14,H'13,H'26,H'26,H'14,H'03,H'1A,H'15,H'09,H'23,H'16,
             221D0C0721 +                       H'2C,H'1F,H'17,H'04,H'3B,H'18,H'21,H'07,H'19,H'2B,H'3E,H'1A,H'0E,H'02,H'1B,H'1A,
             0D0D180E28 +                       H'30,H'1C,H'3F,H'0C,H'1D,H'35,H'35,H'1E,H'10,H'09,H'1F,H'15,H'27,H'20,H'30,H'1B,
             240F382D10 +                       H'21,H'3A,H'22,H'22,H'1F,H'1E,H'23,H'0B,H'2C,H'24,H'2E,H'10,H'25,H'24,H'29,H'26,
             1D11111728 +                       H'01,H'15,H'27,H'29,H'31,H'28
             1232141326   
             2614031A15   
             0923162C1F   
             17043B1821   
             07192B3E1A   
             0E021B1A30   
             1C3F0C1D35   
             351E10091F   
             152720301B   
             213A22221F   
             1E230B2C24   
             2E10252429   
             2601152729   
             3128         
    0000034E              _codeword_parameters:            ; static: codeword_parameters
    0000034E 0D010D0000             .DATA.B     H'0D,H'01,H'0D,H'00,H'00,H'00,H'00,H'00,H'00,H'00,H'00,H'00,H'16,H'01,H'16,H'00,
             0000000000 +                       H'00,H'07,H'12,H'00,H'00,H'00,H'00,H'00,H'12,H'02,H'11,H'00,H'00,H'07,H'16,H'00,
             0000160116 +                       H'00,H'00,H'00,H'00,H'1A,H'02,H'18,H'00,H'00,H'07,H'1A,H'00,H'00,H'00,H'00,H'00,
             0000071200 +                       H'12,H'02,H'0F,H'02,H'10,H'07,H'1E,H'00,H'00,H'00,H'00,H'00,H'18,H'04,H'13,H'00,
             0000000012 +                       H'00,H'07,H'22,H'00,H'00,H'00,H'00,H'00,H'12,H'02,H'0E,H'04,H'0F,H'00,H'16,H'26,
             0211000007 +                       H'00,H'00,H'00,H'00,H'16,H'04,H'12,H'02,H'13,H'00,H'18,H'2A,H'00,H'00,H'00,H'00,
             1600000000 +                       H'14,H'04,H'10,H'04,H'11,H'00,H'1A,H'2E,H'00,H'00,H'00,H'00,H'18,H'06,H'13,H'02,
             001A021800 +                       H'14,H'00,H'1C,H'32,H'00,H'00,H'00,H'00,H'1C,H'04,H'16,H'04,H'17,H'00,H'1E,H'36,
             00071A0000 +                       H'00,H'00,H'00,H'00,H'1A,H'04,H'14,H'06,H'15,H'00,H'20,H'3A,H'00,H'00,H'00,H'00,
             0000001202 +                       H'18,H'08,H'14,H'04,H'15,H'00,H'22,H'3E,H'00,H'00,H'00,H'00,H'14,H'0B,H'10,H'05,
             0F0210071E +                       H'11,H'03,H'1A,H'2E,H'42,H'00,H'00,H'00,H'1E,H'05,H'18,H'07,H'19,H'03,H'1A,H'30,
             0000000000 +                       H'46,H'00,H'00,H'00,H'18,H'0F,H'13,H'02,H'14,H'03,H'1A,H'32,H'4A,H'00,H'00,H'00,
             1804130000 +                       H'1C,H'01,H'16,H'0F,H'17,H'03,H'1E,H'36,H'4E,H'00,H'00,H'00,H'1C,H'11,H'16,H'01,
             0722000000 +                       H'17,H'03,H'1E,H'38
             000012020E   
             040F001626   
             0000000016   
             0412021300   
             182A000000   
             0014041004   
             11001A2E00   
             0000001806   
             130214001C   
             3200000000   
             1C04160417   
             001E360000   
             00001A0414   
             061500203A   
             0000000018   
             0814041500   
             223E000000   
             00140B1005   




SH SERIES C/C++ Compiler (Ver. 6.0C)                                                                 03-Dec-2017 19:45:28  PAGE   55


SCT OFFSET   CODE       C LABEL     INSTRUCTION OPERAND    COMMENT

             11031A2E42   
             0000001E05   
             180719031A   
             3046000000   
             180F130214   
             031A324A00   
             00001C0116   
             0F17031E36   
             4E0000001C   
             1116011703   
             1E38         
    00000422 520000001A             .DATA.B     H'52,H'00,H'00,H'00,H'1A,H'11,H'15,H'04,H'16,H'03,H'1E,H'3A,H'56,H'00,H'00,H'00,
             1115041603 +                       H'1E,H'0F,H'18,H'05,H'19,H'03,H'22,H'3E,H'5A,H'00,H'00,H'00,H'1C,H'11,H'16,H'06,
             1E3A560000 +                       H'17,H'04,H'1C,H'32,H'48,H'5E,H'00,H'00,H'1E,H'07,H'18,H'10,H'19,H'04,H'1A,H'32,
             001E0F1805 +                       H'4A,H'62,H'00,H'00,H'1E,H'0B,H'18,H'0E,H'19,H'04,H'1E,H'36,H'4E,H'66,H'00,H'00,
             1903223E5A +                       H'1E,H'0B,H'18,H'10,H'19,H'04,H'1C,H'36,H'50,H'6A,H'00,H'00,H'1E,H'07,H'18,H'16,
             0000001C11 +                       H'19,H'04,H'20,H'3A,H'54,H'6E,H'00,H'00,H'1C,H'1C,H'16,H'06,H'17,H'04,H'1E,H'3A,
             160617041C +                       H'56,H'72,H'00,H'00,H'1E,H'08,H'17,H'1A,H'18,H'04,H'22,H'3E,H'5A,H'76,H'00,H'00,
             32485E0000 +                       H'1E,H'04,H'18,H'1F,H'19,H'03,H'1A,H'32,H'4A,H'62,H'7A,H'00,H'1E,H'01,H'17,H'25,
             1E07181019 +                       H'18,H'03,H'1E,H'36,H'4E,H'66,H'7E,H'00,H'1E,H'0F,H'18,H'19,H'19,H'03,H'1A,H'34,
             041A324A62 +                       H'4E,H'68,H'82,H'00,H'1E,H'2A,H'18,H'01,H'19,H'03,H'1E,H'38,H'52,H'6C,H'86,H'00,
             00001E0B18 +                       H'1E,H'0A,H'18,H'23,H'19,H'03,H'22,H'3C,H'56,H'70,H'8A,H'00,H'1E,H'1D,H'18,H'13,
             0E19041E36 +                       H'19,H'03,H'1E,H'3A,H'56,H'72,H'8E,H'00,H'1E,H'2C,H'18,H'07,H'19,H'03,H'22,H'3E,
             4E6600001E +                       H'5A,H'76,H'92,H'00,H'1E,H'27,H'18,H'0E,H'19,H'00,H'1E,H'36,H'4E,H'66,H'7E,H'96,
             0B18101904 +                       H'1E,H'2E,H'18,H'0A
             1C36506A00   
             001E071816   
             1904203A54   
             6E00001C1C   
             160617041E   
             3A56720000   
             1E08171A18   
             04223E5A76   
             00001E0418   
             1F19031A32   
             4A627A001E   
             0117251803   
             1E364E667E   
             001E0F1819   
             19031A344E   
             6882001E2A   
             180119031E   
             38526C8600   
             1E0A182319   
             03223C5670   
             8A001E1D18   
             1319031E3A   
             56728E001E   
             2C18071903   
             223E5A7692   
             001E27180E   
             19001E364E   
             667E961E2E   
             180A         
    000004F6 190018324C             .DATA.B     H'19,H'00,H'18,H'32,H'4C,H'66,H'80,H'9A,H'1E,H'31,H'18,H'0A,H'19,H'00,H'1C,H'36,
             66809A1E31 +                       H'50,H'6A,H'84,H'9E,H'1E,H'30,H'18,H'0E,H'19,H'00,H'20,H'3A,H'54,H'6E,H'88,H'A2,
             180A19001C +                       H'1E,H'2B,H'18,H'16,H'19,H'00,H'1A,H'36,H'52,H'6E,H'8A,H'A6,H'1E,H'22,H'18,H'22,




SH SERIES C/C++ Compiler (Ver. 6.0C)                                                                 03-Dec-2017 19:45:28  PAGE   56


SCT OFFSET   CODE       C LABEL     INSTRUCTION OPERAND    COMMENT

             36506A849E +                       H'19,H'00,H'1E,H'3A,H'56,H'72,H'8E,H'AA
             1E30180E19   
             00203A546E   
             88A21E2B18   
             1619001A36   
             526E8AA61E   
             2218221900   
             1E3A56728E   
             AA           
C   00000000              L328:
    00000000 00                     .DATA.B     H'00
    00000001 000000F301             .DATAB.B    243,0
             00           
    000000F4              L335:
    000000F4 00                     .DATA.B     H'00
    000000F5 0000001D01             .DATAB.B    29,0
             00           
    00000112              L338:
    00000112 00                     .DATA.B     H'00
    00000113 0000021301             .DATAB.B    531,0
             00           
    00000326              L366:
    00000326 EC11                   .DATA.B     H'EC,H'11
    00000328              L391:
    00000328 00                     .DATA.B     H'00
    00000329 0000000601             .DATAB.B    6,0
             00           


































SH SERIES C/C++ Compiler (Ver. 6.0C)                                                                 03-Dec-2017 19:45:28  PAGE    1


******** STATISTICS INFORMATION ********


********** ERROR INFORMATION ***********

NUMBER OF ERRORS:           0
NUMBER OF WARNINGS:         0




******* SOURCE LINE INFORMATION ********

COMPILED SOURCE LINE:      402



******* SECTION SIZE INFORMATION *******

PROGRAM  SECTION (P):                               000011C4 Byte(s)
CONSTANT SECTION (C):                               0000032F Byte(s)
DATA     SECTION (D):                               0000052E Byte(s)
BSS      SECTION (B):                               00000000 Byte(s)

 TOTAL PROGRAM SIZE: 00001A21 Byte(s)



********** LABEL INFORMATION ***********

NUMBER OF EXTERNAL REFERENCE SYMBOLS:           11
NUMBER OF EXTERNAL DEFINITION SYMBOLS:          10
NUMBER OF INTERNAL/EXTERNAL SYMBOLS:           204






























*** COMMAND PARAMETER ***


  -subcommand=C:\Users\Lenovo\AppData\Local\Temp\hmk14B1.tmp 

